(dp0
(S'48.122.25.154'
p1
S'31.144.51.215'
p2
I40673
I19970
tp3
I0
s(S'128.202.202.205'
p4
S'161.156.169.160'
p5
I7507
I22274
tp6
I2
s(S'32.160.243.121'
p7
S'43.184.141.184'
p8
I8964
I64508
tp9
I0
s(S'241.15.139.57'
p10
S'215.53.79.107'
p11
I7679
I42148
tp12
I0
s(S'227.0.220.100'
p13
S'243.17.231.98'
p14
I31946
I7962
tp15
I0
s(S'130.9.172.0'
p16
S'135.135.44.206'
p17
I28255
I11633
tp18
I0
s(S'216.223.33.98'
p19
S'61.155.8.67'
p20
I16474
I25414
tp21
I1
s(S'153.171.224.184'
p22
S'146.244.29.124'
p23
I31796
I23595
tp24
I0
s(S'249.80.204.114'
p25
S'24.255.17.191'
p26
I38413
I63633
tp27
I1
s(S'226.96.138.239'
p28
S'98.125.215.177'
p29
I63852
I61590
tp30
I0
s(S'26.7.29.109'
p31
S'177.162.180.18'
p32
I17964
I1218
tp33
I0
s(S'215.37.186.176'
p34
S'86.22.184.55'
p35
I39721
I51100
tp36
I1
s(S'89.191.106.43'
p37
S'33.7.27.174'
p38
I40919
I17005
tp39
I0
s(S'105.70.80.67'
p40
S'41.213.186.234'
p41
I13254
I24737
tp42
I0
s(S'80.35.120.229'
p43
S'13.253.237.57'
p44
I10352
I37919
tp45
I0
s(S'185.46.16.88'
p46
S'137.67.153.109'
p47
I32254
I16780
tp48
I1
s(S'177.131.244.143'
p49
S'164.238.168.124'
p50
I64013
I3435
tp51
I0
s(S'10.78.196.189'
p52
S'196.242.147.234'
p53
I33932
I49232
tp54
I0
s(S'104.219.13.36'
p55
S'70.13.15.22'
p56
I10307
I14065
tp57
I0
s(S'42.208.123.146'
p58
S'38.58.187.176'
p59
I58440
I25196
tp60
I0
s(S'75.68.24.203'
p61
S'154.246.252.201'
p62
I15094
I17673
tp63
I0
s(S'219.13.175.245'
p64
S'153.33.65.2'
p65
I14529
I50389
tp66
I0
s(S'223.103.103.150'
p67
S'202.103.75.211'
p68
I51892
I64991
tp69
I2
s(S'142.135.112.173'
p70
S'55.23.4.176'
p71
I51579
I35623
tp72
I0
s(S'142.40.179.129'
p73
S'169.197.84.91'
p74
I32708
I40770
tp75
I0
s(S'232.252.180.104'
p76
S'97.178.125.217'
p77
I55073
I16687
tp78
I0
s(S'233.60.42.13'
p79
S'55.29.167.167'
p80
I46039
I34091
tp81
I1
s(S'79.247.249.23'
p82
S'188.24.107.114'
p83
I11925
I41635
tp84
I0
s(S'215.94.141.33'
p85
S'230.246.124.38'
p86
I10962
I20511
tp87
I1
s(S'45.44.246.138'
p88
S'60.146.28.55'
p89
I26302
I29412
tp90
I2
s(S'20.62.60.252'
p91
S'165.34.16.223'
p92
I45933
I24093
tp93
I0
s(S'192.57.203.70'
p94
S'82.13.69.241'
p95
I38102
I2177
tp96
I0
s(S'210.253.225.196'
p97
S'37.12.192.59'
p98
I43916
I31541
tp99
I0
s(S'58.245.204.179'
p100
S'94.149.77.37'
p101
I57826
I60581
tp102
I3
s(S'43.189.171.151'
p103
S'13.162.223.46'
p104
I43502
I65483
tp105
I0
s(S'140.219.253.195'
p106
S'11.159.208.77'
p107
I37274
I22093
tp108
I0
s(S'205.63.129.158'
p109
S'152.126.127.210'
p110
I54858
I24772
tp111
I1
s(S'195.252.251.87'
p112
S'125.190.77.19'
p113
I61911
I13687
tp114
I0
s(S'67.189.145.212'
p115
S'14.24.160.115'
p116
I7973
I32523
tp117
I0
s(S'22.206.139.79'
p118
S'27.46.55.111'
p119
I7019
I4929
tp120
I1
s(S'79.148.69.209'
p121
S'246.181.181.52'
p122
I48926
I30831
tp123
I0
s(S'46.216.197.4'
p124
S'244.112.80.43'
p125
I16080
I16211
tp126
I2
s(S'175.25.145.195'
p127
S'247.41.166.243'
p128
I53046
I42712
tp129
I2
s(S'52.230.102.81'
p130
S'210.49.158.31'
p131
I7381
I35295
tp132
I1
s(S'210.4.241.1'
p133
S'190.133.23.105'
p134
I34154
I12563
tp135
I1
s(S'203.201.246.166'
p136
S'137.242.46.180'
p137
I35753
I671
tp138
I2
s(S'211.212.44.138'
p139
S'129.191.92.45'
p140
I52832
I3491
tp141
I0
s(S'17.192.129.57'
p142
S'74.247.175.218'
p143
I4894
I18890
tp144
I0
s(S'30.192.134.240'
p145
S'14.128.195.99'
p146
I16499
I47675
tp147
I1
s(S'147.208.141.52'
p148
S'228.42.111.222'
p149
I39027
I28281
tp150
I2
s(S'93.217.198.163'
p151
S'46.98.183.228'
p152
I22707
I28778
tp153
I0
s(S'107.143.151.173'
p154
S'40.28.214.236'
p155
I9169
I60087
tp156
I0
s(S'10.197.142.189'
p157
S'56.153.213.223'
p158
I35318
I28386
tp159
I0
s(S'58.199.91.29'
p160
S'218.7.197.17'
p161
I23817
I5683
tp162
I1
s(S'188.110.178.199'
p163
S'206.116.179.200'
p164
I57376
I37824
tp165
I0
s(S'11.14.9.92'
p166
S'183.165.149.108'
p167
I33529
I31678
tp168
I1
s(S'249.20.18.248'
p169
S'103.176.9.161'
p170
I38757
I48573
tp171
I1
s(S'206.197.5.87'
p172
S'252.170.232.30'
p173
I42218
I25841
tp174
I1
s(S'28.51.159.212'
p175
S'238.7.225.85'
p176
I56488
I26675
tp177
I0
s(S'90.117.66.159'
p178
S'189.9.200.110'
p179
I17778
I23891
tp180
I1
s(S'192.105.108.126'
p181
S'135.238.210.162'
p182
I53775
I61391
tp183
I0
s(S'153.43.226.110'
p184
S'135.40.38.177'
p185
I8496
I29122
tp186
I0
s(S'70.94.111.53'
p187
S'242.184.14.87'
p188
I51076
I60140
tp189
I0
s(S'133.242.195.216'
p190
S'38.35.5.176'
p191
I46546
I30728
tp192
I0
s(S'219.212.198.124'
p193
S'50.131.247.52'
p194
I57712
I20206
tp195
I1
s(S'145.237.211.17'
p196
S'213.128.78.50'
p197
I41132
I15445
tp198
I0
s(S'80.232.155.97'
p199
S'42.130.246.96'
p200
I4111
I54534
tp201
I1
s(S'208.13.214.16'
p202
S'107.82.174.20'
p203
I19059
I36769
tp204
I0
s(S'80.160.141.166'
p205
S'220.213.226.51'
p206
I37543
I12264
tp207
I1
s(S'108.235.31.233'
p208
S'236.98.190.253'
p209
I44051
I21908
tp210
I0
s(S'25.102.33.68'
p211
S'244.229.74.186'
p212
I52102
I5917
tp213
I0
s(S'188.194.185.2'
p214
S'219.202.74.157'
p215
I9438
I20777
tp216
I0
s(S'22.152.117.86'
p217
S'147.113.186.147'
p218
I51264
I6889
tp219
I1
s(S'175.158.110.48'
p220
S'89.233.183.206'
p221
I4897
I23225
tp222
I1
s(S'171.170.67.158'
p223
S'177.87.178.239'
p224
I20919
I57946
tp225
I1
s(S'204.158.97.85'
p226
S'175.220.193.249'
p227
I26836
I36927
tp228
I0
s(S'45.161.155.246'
p229
S'221.185.0.100'
p230
I47582
I21091
tp231
I0
s(S'119.136.157.155'
p232
S'88.219.7.58'
p233
I39391
I30799
tp234
I0
s(S'106.73.235.50'
p235
S'251.203.97.61'
p236
I64334
I20766
tp237
I2
s(S'209.207.86.176'
p238
S'124.141.76.12'
p239
I42199
I19426
tp240
I1
s(S'70.76.252.146'
p241
S'77.54.83.70'
p242
I32788
I22475
tp243
I0
s(S'165.215.149.70'
p244
S'71.242.211.217'
p245
I63813
I27190
tp246
I0
s(S'234.251.130.225'
p247
S'77.107.185.197'
p248
I25047
I57216
tp249
I0
s(S'119.179.2.85'
p250
S'160.138.15.187'
p251
I14171
I19209
tp252
I0
s(S'106.88.169.237'
p253
S'10.77.123.107'
p254
I55148
I37606
tp255
I1
s(S'115.49.192.114'
p256
S'236.16.78.43'
p257
I57364
I33785
tp258
I0
s(S'243.251.220.227'
p259
S'54.210.137.33'
p260
I27961
I57346
tp261
I0
s(S'221.53.115.124'
p262
S'211.19.81.61'
p263
I9003
I55461
tp264
I0
s(S'225.27.87.174'
p265
S'17.190.207.158'
p266
I43630
I54617
tp267
I1
s(S'137.154.122.158'
p268
S'138.183.245.5'
p269
I49935
I19626
tp270
I1
s(S'233.77.109.141'
p271
S'90.173.45.93'
p272
I10804
I61274
tp273
I0
s(S'184.104.109.27'
p274
S'176.45.16.164'
p275
I39121
I9615
tp276
I2
s(S'59.68.127.203'
p277
S'249.19.25.243'
p278
I4769
I55055
tp279
I2
s(S'193.138.48.173'
p280
S'60.2.40.73'
p281
I33688
I38205
tp282
I0
s(S'107.193.166.16'
p283
S'158.2.134.47'
p284
I57887
I55153
tp285
I0
s(S'171.16.62.68'
p286
S'203.196.162.223'
p287
I31372
I22477
tp288
I1
s(S'74.22.139.215'
p289
S'109.252.63.70'
p290
I31289
I8160
tp291
I1
s(S'156.147.113.24'
p292
S'248.111.98.174'
p293
I52642
I63609
tp294
I0
s(S'29.11.147.22'
p295
S'85.148.82.213'
p296
I31142
I2758
tp297
I0
s(S'175.193.50.71'
p298
S'66.252.153.127'
p299
I48073
I35070
tp300
I0
s(S'15.46.202.219'
p301
S'107.110.234.140'
p302
I46971
I54052
tp303
I0
s(S'180.38.228.92'
p304
S'43.252.6.216'
p305
I23833
I35151
tp306
I0
s(S'162.156.145.117'
p307
S'169.74.244.105'
p308
I2913
I43919
tp309
I1
s(S'152.201.6.43'
p310
S'155.201.242.183'
p311
I1116
I4371
tp312
I0
s(S'26.195.24.57'
p313
S'151.96.44.211'
p314
I64269
I12458
tp315
I0
s(S'167.153.124.203'
p316
S'125.165.167.162'
p317
I5703
I46577
tp318
I2
s(S'163.182.9.214'
p319
S'168.153.104.137'
p320
I2884
I50657
tp321
I0
s(S'240.122.70.194'
p322
S'48.237.109.138'
p323
I3435
I5772
tp324
I1
s(S'113.204.38.178'
p325
S'39.233.219.251'
p326
I44245
I49828
tp327
I2
s(S'233.251.118.122'
p328
S'99.112.59.126'
p329
I30717
I47922
tp330
I0
s(S'71.35.205.69'
p331
S'28.46.118.235'
p332
I65178
I29031
tp333
I0
s(S'241.158.228.79'
p334
S'84.208.249.143'
p335
I38562
I46643
tp336
I2
s(S'11.217.151.187'
p337
S'144.7.140.129'
p338
I711
I60987
tp339
I0
s(S'59.190.145.70'
p340
S'46.68.56.161'
p341
I8632
I43859
tp342
I0
s(S'142.169.167.17'
p343
S'123.91.118.196'
p344
I36832
I7867
tp345
I0
s(S'243.135.22.208'
p346
S'111.75.157.50'
p347
I25990
I54325
tp348
I0
s(S'128.234.65.114'
p349
S'198.226.239.32'
p350
I18751
I61877
tp351
I0
s(S'115.22.178.19'
p352
S'102.219.182.139'
p353
I170
I64109
tp354
I1
s(S'200.221.41.199'
p355
S'192.34.34.129'
p356
I6253
I65355
tp357
I2
s(S'100.34.85.183'
p358
S'202.98.26.244'
p359
I4479
I33522
tp360
I0
s(S'213.182.225.221'
p361
S'113.155.219.205'
p362
I34066
I36308
tp363
I0
s(S'117.80.8.56'
p364
S'24.40.22.201'
p365
I44979
I2433
tp366
I0
s(S'71.17.78.80'
p367
S'181.8.41.188'
p368
I29471
I7890
tp369
I2
s(S'122.206.0.188'
p370
S'103.115.143.104'
p371
I61005
I13611
tp372
I1
s(S'224.87.109.167'
p373
S'26.38.167.241'
p374
I8752
I3869
tp375
I0
s(S'129.113.180.150'
p376
S'90.36.214.92'
p377
I576
I33210
tp378
I0
s(S'44.215.123.53'
p379
S'170.192.216.199'
p380
I62126
I53799
tp381
I0
s(S'218.121.23.8'
p382
S'27.174.220.130'
p383
I11791
I55707
tp384
I0
s(S'72.197.12.211'
p385
S'76.27.40.76'
p386
I35156
I51655
tp387
I1
s(S'31.153.128.186'
p388
S'98.198.222.117'
p389
I59844
I11066
tp390
I0
s(S'117.206.71.163'
p391
S'219.25.51.120'
p392
I23556
I57216
tp393
I0
s(S'47.148.160.42'
p394
S'209.149.106.175'
p395
I43455
I59868
tp396
I0
s(S'168.182.170.161'
p397
S'189.114.220.229'
p398
I3583
I21783
tp399
I1
s(S'74.232.99.240'
p400
S'25.26.250.53'
p401
I50719
I41558
tp402
I1
s(S'136.16.191.157'
p403
S'42.142.93.0'
p404
I6187
I22051
tp405
I0
s(S'184.50.211.79'
p406
S'220.116.23.144'
p407
I7993
I58028
tp408
I1
s(S'218.203.141.59'
p409
S'203.16.139.172'
p410
I64982
I54078
tp411
I0
s(S'41.194.32.26'
p412
S'176.149.202.34'
p413
I61483
I16963
tp414
I0
s(S'58.122.91.96'
p415
S'17.114.94.4'
p416
I33310
I37026
tp417
I2
s(S'142.135.13.89'
p418
S'88.164.236.1'
p419
I11747
I18142
tp420
I1
s(S'250.207.155.233'
p421
S'111.83.137.178'
p422
I19303
I34206
tp423
I0
s(S'110.18.181.28'
p424
S'21.9.116.183'
p425
I24289
I2739
tp426
I0
s(S'222.175.139.175'
p427
S'159.58.62.231'
p428
I20859
I54867
tp429
I0
s(S'207.2.254.8'
p430
S'101.189.241.21'
p431
I21617
I12006
tp432
I0
s(S'195.132.120.20'
p433
S'186.177.3.155'
p434
I55452
I46681
tp435
I0
s(S'144.135.3.211'
p436
S'121.169.250.235'
p437
I37475
I33884
tp438
I2
s(S'244.219.72.98'
p439
S'200.71.161.33'
p440
I54460
I51496
tp441
I0
s(S'73.3.53.183'
p442
S'26.84.71.32'
p443
I43494
I8426
tp444
I1
s(S'178.60.161.243'
p445
S'55.151.237.149'
p446
I23398
I28256
tp447
I0
s(S'62.90.34.244'
p448
S'24.64.33.209'
p449
I51306
I34423
tp450
I0
s(S'29.100.1.226'
p451
S'156.72.168.73'
p452
I65115
I7899
tp453
I1
s(S'91.203.127.42'
p454
S'101.170.89.41'
p455
I5502
I64835
tp456
I1
s(S'123.153.239.3'
p457
S'60.13.52.174'
p458
I12132
I64413
tp459
I0
s(S'113.51.28.207'
p460
S'178.162.7.172'
p461
I7079
I30958
tp462
I0
s(S'175.131.229.198'
p463
S'199.121.75.20'
p464
I45806
I27552
tp465
I0
s(S'246.94.10.197'
p466
S'100.142.247.214'
p467
I59587
I11031
tp468
I1
s(S'71.152.71.93'
p469
S'73.158.39.30'
p470
I26389
I18210
tp471
I0
s(S'235.4.23.49'
p472
S'225.115.115.51'
p473
I12588
I62234
tp474
I0
s(S'231.155.212.24'
p475
S'221.53.44.141'
p476
I30332
I59526
tp477
I0
s(S'186.237.145.133'
p478
S'50.151.52.129'
p479
I4786
I31697
tp480
I1
s(S'241.157.67.217'
p481
S'126.123.11.234'
p482
I4054
I60456
tp483
I1
s(S'66.95.253.108'
p484
S'187.155.61.165'
p485
I39932
I64030
tp486
I0
s(S'13.8.210.158'
p487
S'12.224.137.72'
p488
I65104
I25726
tp489
I2
s(S'112.58.119.228'
p490
S'208.219.223.182'
p491
I40626
I43246
tp492
I0
s(S'164.133.218.184'
p493
S'83.56.223.212'
p494
I6580
I15481
tp495
I0
s(S'64.96.191.133'
p496
S'107.139.120.219'
p497
I38998
I61027
tp498
I1
s(S'146.138.120.159'
p499
S'135.14.84.220'
p500
I65193
I24755
tp501
I1
s(S'66.132.239.145'
p502
S'36.116.16.217'
p503
I35731
I472
tp504
I0
s(S'199.124.229.227'
p505
S'217.113.154.196'
p506
I56504
I15129
tp507
I1
s(S'228.206.116.162'
p508
S'156.203.13.178'
p509
I50907
I4739
tp510
I1
s(S'54.196.45.121'
p511
S'61.221.204.76'
p512
I39576
I17257
tp513
I1
s(S'193.5.4.98'
p514
S'200.125.112.241'
p515
I61035
I55884
tp516
I0
s(S'65.248.242.231'
p517
S'33.12.201.242'
p518
I48095
I33105
tp519
I0
s(S'231.175.203.102'
p520
S'204.213.190.48'
p521
I5153
I8893
tp522
I0
s(S'19.115.123.182'
p523
S'223.126.139.187'
p524
I32304
I49589
tp525
I0
s(S'135.90.105.121'
p526
S'221.222.145.170'
p527
I64677
I22107
tp528
I0
s(S'69.238.43.110'
p529
S'209.97.184.98'
p530
I43224
I52286
tp531
I0
s(S'146.9.15.84'
p532
S'188.52.58.103'
p533
I60620
I22812
tp534
I1
s(S'166.20.246.192'
p535
S'39.6.4.190'
p536
I9589
I27274
tp537
I0
s(S'247.116.108.24'
p538
S'93.97.151.73'
p539
I53685
I38741
tp540
I0
s(S'116.69.107.245'
p541
S'68.15.220.194'
p542
I17878
I7507
tp543
I0
s(S'75.32.106.37'
p544
S'35.126.175.251'
p545
I40722
I20487
tp546
I0
s(S'251.237.172.168'
p547
S'180.174.228.53'
p548
I40691
I5428
tp549
I0
s(S'85.53.231.129'
p550
S'229.165.234.177'
p551
I13566
I39925
tp552
I1
s(S'203.233.168.77'
p553
S'226.112.101.21'
p554
I23417
I22526
tp555
I0
s(S'35.95.183.228'
p556
S'76.86.1.52'
p557
I48199
I3306
tp558
I0
s(S'54.48.57.47'
p559
S'15.49.155.43'
p560
I5116
I41041
tp561
I0
s(S'201.157.177.234'
p562
S'74.16.126.4'
p563
I30025
I28446
tp564
I0
s(S'183.167.195.244'
p565
S'140.175.159.111'
p566
I50550
I46566
tp567
I0
s(S'11.197.58.4'
p568
S'133.34.129.95'
p569
I4429
I9488
tp570
I0
s(S'16.231.170.5'
p571
S'60.89.25.230'
p572
I9075
I5072
tp573
I0
s(S'191.55.173.60'
p574
S'24.157.35.83'
p575
I29392
I40659
tp576
I0
s(S'221.137.72.143'
p577
S'137.103.127.121'
p578
I12818
I7694
tp579
I0
s(S'135.10.84.120'
p580
S'62.21.61.250'
p581
I31198
I43996
tp582
I1
s(S'220.166.152.141'
p583
S'55.44.183.132'
p584
I62763
I49778
tp585
I0
s(S'194.232.141.242'
p586
S'18.221.17.73'
p587
I36635
I7556
tp588
I0
s(S'91.252.121.9'
p589
S'55.130.113.28'
p590
I35873
I59579
tp591
I0
s(S'246.25.4.116'
p592
S'139.180.171.95'
p593
I32146
I45868
tp594
I0
s(S'22.222.23.71'
p595
S'162.201.223.79'
p596
I44417
I49109
tp597
I0
s(S'115.178.182.134'
p598
S'183.254.121.107'
p599
I61987
I24296
tp600
I2
s(S'196.74.82.132'
p601
S'84.135.192.118'
p602
I13604
I11488
tp603
I0
s(S'64.156.196.36'
p604
S'197.226.219.111'
p605
I22908
I17902
tp606
I0
s(S'17.153.195.223'
p607
S'128.233.173.181'
p608
I50287
I11293
tp609
I2
s(S'45.185.223.103'
p610
S'55.66.197.60'
p611
I18830
I29612
tp612
I0
s(S'40.101.194.170'
p613
S'117.122.96.244'
p614
I32259
I3692
tp615
I0
s(S'181.82.83.130'
p616
S'103.110.175.131'
p617
I62078
I9678
tp618
I0
s(S'190.188.190.97'
p619
S'127.61.116.245'
p620
I64679
I4971
tp621
I0
s(S'146.140.148.13'
p622
S'86.211.71.240'
p623
I1836
I19688
tp624
I1
s(S'175.7.181.118'
p625
S'153.60.156.223'
p626
I55330
I48473
tp627
I0
s(S'114.205.9.111'
p628
S'53.159.11.2'
p629
I30268
I60150
tp630
I1
s(S'222.128.242.86'
p631
S'38.202.204.111'
p632
I7053
I58610
tp633
I2
s(S'100.144.48.222'
p634
S'151.177.220.218'
p635
I19900
I57883
tp636
I2
s(S'202.223.203.58'
p637
S'67.17.52.82'
p638
I44547
I35256
tp639
I1
s(S'189.158.192.231'
p640
S'107.216.197.191'
p641
I39068
I42753
tp642
I1
s(S'215.191.42.90'
p643
S'201.190.205.150'
p644
I49126
I12602
tp645
I0
s(S'64.39.65.39'
p646
S'93.233.74.184'
p647
I62131
I22601
tp648
I0
s(S'97.151.14.20'
p649
S'118.28.116.239'
p650
I47834
I34000
tp651
I0
s(S'206.234.54.121'
p652
S'33.181.167.86'
p653
I28345
I1681
tp654
I1
s(S'176.152.91.184'
p655
S'68.53.65.193'
p656
I4170
I43330
tp657
I0
s(S'134.249.92.250'
p658
S'77.38.236.7'
p659
I7202
I35771
tp660
I1
s(S'166.223.103.204'
p661
S'103.247.234.117'
p662
I24874
I3997
tp663
I0
s(S'232.214.88.32'
p664
S'65.179.127.246'
p665
I26395
I63903
tp666
I0
s(S'143.65.158.155'
p667
S'155.165.99.146'
p668
I16736
I62301
tp669
I0
s(S'72.31.239.14'
p670
S'95.172.88.197'
p671
I45475
I43915
tp672
I0
s(S'68.156.73.134'
p673
S'146.173.27.56'
p674
I33114
I24711
tp675
I0
s(S'59.87.247.25'
p676
S'149.13.210.253'
p677
I13314
I41709
tp678
I0
s(S'155.156.247.180'
p679
S'79.52.47.37'
p680
I57740
I50055
tp681
I0
s(S'133.66.179.118'
p682
S'25.145.155.34'
p683
I432
I23009
tp684
I462
s(S'124.69.72.46'
p685
S'130.24.11.61'
p686
I5848
I46066
tp687
I1
s(S'102.136.104.242'
p688
S'77.107.89.9'
p689
I30304
I35983
tp690
I0
s(S'67.241.226.165'
p691
S'170.59.74.138'
p692
I37236
I26074
tp693
I0
s(S'27.114.157.86'
p694
S'139.109.24.53'
p695
I36337
I40993
tp696
I0
s(S'23.52.29.98'
p697
S'40.229.255.19'
p698
I27800
I29389
tp699
I0
s(S'94.96.196.211'
p700
S'190.21.188.170'
p701
I983
I48416
tp702
I0
s(S'178.158.202.48'
p703
S'94.247.164.5'
p704
I44707
I32850
tp705
I0
s(S'248.84.176.74'
p706
S'197.33.119.71'
p707
I63788
I31483
tp708
I0
s(S'121.207.168.169'
p709
S'161.252.144.189'
p710
I58409
I10211
tp711
I0
s(S'10.120.90.160'
p712
S'155.24.18.18'
p713
I44069
I39739
tp714
I0
s(S'224.151.211.195'
p715
S'95.110.88.82'
p716
I45365
I64400
tp717
I1
s(S'48.145.75.108'
p718
S'47.201.81.64'
p719
I47712
I29999
tp720
I1
s(S'157.210.216.156'
p721
S'141.203.235.95'
p722
I65212
I45364
tp723
I1
s(S'57.55.195.55'
p724
S'176.245.73.161'
p725
I34450
I163
tp726
I2
s(S'18.124.108.105'
p727
S'31.93.1.223'
p728
I33289
I3380
tp729
I0
s(S'182.188.132.116'
p730
S'54.141.98.16'
p731
I18119
I7507
tp732
I0
s(S'193.13.164.94'
p733
S'41.195.238.129'
p734
I11392
I5401
tp735
I0
s(S'174.167.25.251'
p736
S'233.222.22.67'
p737
I65355
I50370
tp738
I2
s(S'113.192.41.215'
p739
S'218.65.239.193'
p740
I3577
I61601
tp741
I0
s(S'51.250.246.184'
p742
S'79.80.154.119'
p743
I5893
I61685
tp744
I425
s(S'41.200.251.252'
p745
S'185.195.15.30'
p746
I32665
I37604
tp747
I1
s(S'123.20.26.4'
p748
S'142.64.221.131'
p749
I27810
I9130
tp750
I0
s(S'88.79.187.162'
p751
S'113.33.236.237'
p752
I6391
I52852
tp753
I0
s(S'233.136.211.72'
p754
S'154.109.210.168'
p755
I39860
I64644
tp756
I0
s(S'178.67.223.193'
p757
S'14.134.180.128'
p758
I45099
I62636
tp759
I2
s(S'156.118.93.112'
p760
S'95.241.8.44'
p761
I15974
I56520
tp762
I0
s(S'49.162.136.92'
p763
S'78.189.222.40'
p764
I51152
I23721
tp765
I0
s(S'213.69.195.125'
p766
S'157.125.50.60'
p767
I36291
I52710
tp768
I0
s(S'181.165.134.238'
p769
S'250.2.127.215'
p770
I64836
I56553
tp771
I0
s(S'216.53.136.243'
p772
S'52.86.250.226'
p773
I38769
I50226
tp774
I1
s(S'14.245.153.55'
p775
S'123.234.205.91'
p776
I6095
I12444
tp777
I1
s(S'39.117.71.121'
p778
S'157.114.229.74'
p779
I2815
I13828
tp780
I0
s(S'207.149.120.120'
p781
S'101.129.132.227'
p782
I46434
I38431
tp783
I0
s(S'52.195.241.159'
p784
S'92.65.115.62'
p785
I36591
I2690
tp786
I0
s(S'27.161.149.52'
p787
S'109.41.72.123'
p788
I42788
I38866
tp789
I0
s(S'97.242.89.5'
p790
S'140.88.25.129'
p791
I64826
I10517
tp792
I0
s(S'81.226.13.174'
p793
S'67.198.195.160'
p794
I12181
I60526
tp795
I0
s(S'43.204.111.122'
p796
S'133.202.248.161'
p797
I55276
I31307
tp798
I2
s(S'108.243.186.74'
p799
S'37.227.38.243'
p800
I46970
I19019
tp801
I1
s(S'51.59.40.47'
p802
S'201.66.241.84'
p803
I48591
I21496
tp804
I2
s(S'176.112.207.167'
p805
S'75.130.231.164'
p806
I42529
I30933
tp807
I1
s(S'225.208.214.125'
p808
S'107.25.147.27'
p809
I34245
I39884
tp810
I1
s(S'188.216.116.210'
p811
S'162.123.134.41'
p812
I35139
I63211
tp813
I0
s(S'244.44.232.98'
p814
S'161.221.88.50'
p815
I7672
I57162
tp816
I2
s(S'238.139.26.223'
p817
S'119.44.179.163'
p818
I60283
I47344
tp819
I0
s(S'158.98.217.243'
p820
S'202.130.76.82'
p821
I25319
I6933
tp822
I0
s(S'110.107.1.140'
p823
S'211.23.246.198'
p824
I40384
I5348
tp825
I0
s(S'221.100.249.239'
p826
S'12.232.66.31'
p827
I48643
I27864
tp828
I1
s(S'101.124.166.230'
p829
S'183.22.76.87'
p830
I58607
I32421
tp831
I0
s(S'115.10.27.145'
p832
S'102.81.32.161'
p833
I11352
I6203
tp834
I0
s(S'186.236.206.248'
p835
S'192.53.228.94'
p836
I42744
I37348
tp837
I1
s(S'12.24.21.44'
p838
S'223.163.76.200'
p839
I17653
I47015
tp840
I1
s(S'41.239.39.172'
p841
S'94.84.9.28'
p842
I12518
I4734
tp843
I0
s(S'246.126.234.148'
p844
S'160.228.181.199'
p845
I47982
I38672
tp846
I0
s(S'123.227.218.248'
p847
S'229.134.101.108'
p848
I40587
I985
tp849
I0
s(S'224.194.242.135'
p850
S'212.219.115.72'
p851
I46291
I23963
tp852
I1
s(S'154.12.53.254'
p853
S'157.190.213.107'
p854
I8951
I17628
tp855
I0
s(S'251.4.224.205'
p856
S'165.221.69.217'
p857
I19649
I32642
tp858
I0
s(S'144.27.156.22'
p859
S'138.203.121.12'
p860
I11770
I3135
tp861
I0
s(S'201.233.185.252'
p862
S'188.221.153.178'
p863
I48369
I45548
tp864
I0
s(S'160.147.77.102'
p865
S'35.103.4.14'
p866
I33649
I48588
tp867
I0
s(S'27.40.252.74'
p868
S'20.173.215.32'
p869
I14854
I14931
tp870
I1
s(S'197.70.185.204'
p871
S'217.159.161.29'
p872
I18002
I30033
tp873
I1
s(S'194.92.34.113'
p874
S'129.101.232.137'
p875
I10694
I36485
tp876
I0
s(S'130.88.231.168'
p877
S'196.252.8.173'
p878
I40234
I31087
tp879
I0
s(S'82.29.181.214'
p880
S'92.174.206.199'
p881
I6355
I24948
tp882
I0
s(S'137.242.55.54'
p883
S'67.211.126.243'
p884
I36666
I1115
tp885
I0
s(S'188.136.135.53'
p886
S'200.150.234.78'
p887
I13097
I43798
tp888
I1
s(S'126.127.164.17'
p889
S'161.221.40.46'
p890
I5234
I47377
tp891
I0
s(S'51.102.55.101'
p892
S'237.99.221.189'
p893
I53676
I30304
tp894
I0
s(S'80.105.127.186'
p895
S'232.81.251.118'
p896
I64758
I38159
tp897
I0
s(S'206.135.82.167'
p898
S'216.64.146.208'
p899
I61897
I21478
tp900
I1
s(S'131.189.75.53'
p901
S'146.0.121.207'
p902
I62975
I5020
tp903
I1
s(S'250.141.105.185'
p904
S'119.218.53.223'
p905
I22181
I59649
tp906
I0
s(S'74.191.252.127'
p907
S'55.59.216.254'
p908
I23198
I56767
tp909
I0
s(S'25.34.145.14'
p910
S'236.148.165.125'
p911
I4362
I26788
tp912
I0
s(S'210.129.234.0'
p913
S'194.73.11.125'
p914
I2381
I30818
tp915
I0
s(S'210.226.218.177'
p916
S'182.193.76.123'
p917
I58064
I26472
tp918
I1
s(S'187.55.253.201'
p919
S'207.120.163.210'
p920
I28806
I30767
tp921
I1
s(S'147.226.243.32'
p922
S'158.190.182.172'
p923
I30677
I11825
tp924
I2
s(S'19.112.70.163'
p925
S'198.70.174.131'
p926
I56607
I61615
tp927
I0
s(S'158.133.136.241'
p928
S'176.137.206.88'
p929
I21071
I46327
tp930
I0
s(S'184.97.131.38'
p931
S'62.213.220.11'
p932
I42690
I51588
tp933
I0
s(S'104.125.112.32'
p934
S'250.196.173.60'
p935
I36523
I44669
tp936
I0
s(S'235.9.187.136'
p937
S'148.70.109.12'
p938
I277
I1054
tp939
I0
s(S'129.137.190.37'
p940
S'170.234.158.144'
p941
I15113
I47903
tp942
I2
s(S'64.238.22.156'
p943
S'51.9.121.11'
p944
I40102
I40109
tp945
I0
s(S'105.23.208.171'
p946
S'211.8.241.205'
p947
I34472
I1208
tp948
I0
s(S'64.205.137.52'
p949
S'89.2.19.104'
p950
I37013
I54693
tp951
I0
s(S'177.143.245.21'
p952
S'181.20.130.121'
p953
I41208
I42126
tp954
I1
s(S'135.31.111.75'
p955
S'56.113.37.109'
p956
I54722
I37202
tp957
I0
s(S'229.48.166.85'
p958
S'40.216.152.94'
p959
I53488
I17354
tp960
I0
s(S'164.214.26.208'
p961
S'180.107.131.128'
p962
I18327
I5815
tp963
I0
s(S'212.78.238.216'
p964
S'232.49.181.107'
p965
I19483
I38852
tp966
I1
s(S'205.11.80.117'
p967
S'71.147.159.45'
p968
I57757
I25568
tp969
I1
s(S'162.89.50.228'
p970
S'95.89.47.109'
p971
I11235
I55781
tp972
I1
s(S'122.221.78.176'
p973
S'40.17.242.175'
p974
I11639
I62362
tp975
I1
s(S'74.235.206.224'
p976
S'217.12.87.232'
p977
I47366
I51700
tp978
I0
s(S'135.7.250.137'
p979
S'77.110.9.153'
p980
I38077
I61038
tp981
I0
s(S'220.191.120.223'
p982
S'77.175.19.27'
p983
I43625
I16446
tp984
I422
s(S'63.95.123.138'
p985
S'94.61.223.8'
p986
I19399
I607
tp987
I0
s(S'211.116.165.28'
p988
S'30.252.105.151'
p989
I29032
I54804
tp990
I0
s(S'85.125.0.20'
p991
S'191.16.157.153'
p992
I58419
I64362
tp993
I1
s(S'130.164.77.224'
p994
S'196.62.83.105'
p995
I55563
I65069
tp996
I0
s(S'253.112.155.59'
p997
S'101.76.109.50'
p998
I7289
I10127
tp999
I1
s(S'10.118.211.136'
p1000
S'199.254.155.120'
p1001
I60634
I49221
tp1002
I0
s(S'133.104.167.196'
p1003
S'72.102.68.186'
p1004
I24824
I5687
tp1005
I1
s(S'233.131.97.197'
p1006
S'71.211.155.56'
p1007
I20693
I3407
tp1008
I1
s(S'218.241.152.103'
p1009
S'199.223.183.76'
p1010
I32473
I28341
tp1011
I0
s(S'143.107.111.80'
p1012
S'26.81.149.5'
p1013
I14033
I29526
tp1014
I0
s(S'130.139.58.101'
p1015
S'41.4.177.165'
p1016
I48365
I42355
tp1017
I0
s(S'183.208.31.253'
p1018
S'37.38.170.52'
p1019
I60480
I53981
tp1020
I0
s(S'164.138.118.106'
p1021
S'231.177.199.17'
p1022
I60012
I4648
tp1023
I0
s(S'51.112.207.134'
p1024
S'150.253.29.67'
p1025
I59716
I49175
tp1026
I0
s(S'136.99.143.46'
p1027
S'88.189.170.15'
p1028
I15534
I57371
tp1029
I1
s(S'51.153.106.51'
p1030
S'122.180.74.8'
p1031
I45069
I2813
tp1032
I1
s(S'102.113.56.214'
p1033
S'45.146.24.140'
p1034
I42441
I49898
tp1035
I2
s(S'132.154.218.37'
p1036
S'31.81.167.125'
p1037
I32463
I61509
tp1038
I0
s(S'76.230.98.188'
p1039
S'64.106.29.88'
p1040
I29783
I4678
tp1041
I0
s(S'109.44.183.46'
p1042
S'242.247.171.144'
p1043
I19559
I64916
tp1044
I0
s(S'20.248.107.148'
p1045
S'156.51.31.179'
p1046
I21088
I37616
tp1047
I1
s(S'208.0.110.221'
p1048
S'175.228.133.181'
p1049
I36920
I1421
tp1050
I2
s(S'98.118.45.255'
p1051
S'224.145.25.61'
p1052
I17040
I384
tp1053
I0
s(S'194.250.183.171'
p1054
S'245.9.74.230'
p1055
I45495
I4083
tp1056
I0
s(S'155.96.61.168'
p1057
S'90.165.59.224'
p1058
I13061
I21952
tp1059
I0
s(S'230.3.12.198'
p1060
S'191.95.223.39'
p1061
I37383
I41616
tp1062
I0
s(S'241.102.192.14'
p1063
S'133.73.122.238'
p1064
I50041
I32615
tp1065
I0
s(S'137.159.114.20'
p1066
S'211.238.106.133'
p1067
I17958
I13064
tp1068
I2
s(S'54.157.18.106'
p1069
S'71.82.0.227'
p1070
I41561
I60872
tp1071
I0
s(S'90.227.139.185'
p1072
S'78.98.164.1'
p1073
I25421
I49164
tp1074
I0
s(S'217.249.230.206'
p1075
S'126.174.254.216'
p1076
I44463
I9216
tp1077
I0
s(S'170.132.254.23'
p1078
S'86.94.58.171'
p1079
I45117
I50924
tp1080
I0
s(S'102.12.12.77'
p1081
S'90.167.206.109'
p1082
I35285
I46565
tp1083
I0
s(S'122.250.17.228'
p1084
S'119.97.140.142'
p1085
I37495
I60623
tp1086
I1
s(S'131.176.76.141'
p1087
S'243.218.19.30'
p1088
I26442
I64397
tp1089
I0
s(S'137.72.14.101'
p1090
S'81.18.160.16'
p1091
I9589
I19666
tp1092
I0
s(S'98.159.104.110'
p1093
S'44.202.137.159'
p1094
I56149
I49692
tp1095
I0
s(S'62.59.232.184'
p1096
S'156.113.42.130'
p1097
I7015
I36676
tp1098
I0
s(S'149.170.67.182'
p1099
S'41.227.231.50'
p1100
I34043
I55075
tp1101
I2
s(S'96.196.6.29'
p1102
S'76.214.79.80'
p1103
I42587
I51068
tp1104
I0
s(S'224.232.228.70'
p1105
S'76.229.147.107'
p1106
I19489
I59154
tp1107
I0
s(S'53.82.108.196'
p1108
S'190.122.247.1'
p1109
I55730
I49404
tp1110
I0
s(S'117.3.245.5'
p1111
S'44.68.70.22'
p1112
I10101
I48066
tp1113
I4
s(S'244.87.105.232'
p1114
S'58.182.244.137'
p1115
I51364
I39799
tp1116
I3
s(S'114.221.121.40'
p1117
S'101.60.81.253'
p1118
I13167
I32217
tp1119
I1
s(S'189.245.86.118'
p1120
S'27.7.227.247'
p1121
I39613
I36704
tp1122
I2
s(S'160.56.166.42'
p1123
S'154.212.96.195'
p1124
I56416
I52847
tp1125
I1
s(S'41.240.171.109'
p1126
S'120.244.184.186'
p1127
I28244
I29937
tp1128
I0
s(S'174.124.32.183'
p1129
S'64.169.9.115'
p1130
I20677
I61515
tp1131
I0
s(S'221.202.194.78'
p1132
S'209.121.32.45'
p1133
I55320
I6991
tp1134
I1
s(S'74.27.247.236'
p1135
S'158.249.225.225'
p1136
I26974
I8786
tp1137
I0
s(S'160.128.109.6'
p1138
S'239.200.36.188'
p1139
I38032
I40519
tp1140
I0
s(S'159.246.77.150'
p1141
S'174.0.158.210'
p1142
I37061
I9471
tp1143
I1
s(S'165.202.241.103'
p1144
S'245.147.164.42'
p1145
I57879
I47649
tp1146
I2
s(S'172.14.79.156'
p1147
S'64.87.213.145'
p1148
I44114
I6153
tp1149
I1
s(S'172.244.211.32'
p1150
S'216.248.227.147'
p1151
I52461
I2250
tp1152
I1
s(S'186.242.20.106'
p1153
S'33.32.49.98'
p1154
I64330
I15262
tp1155
I0
s(S'37.151.53.31'
p1156
S'79.63.51.209'
p1157
I36026
I29362
tp1158
I0
s(S'59.226.164.90'
p1159
S'21.51.14.196'
p1160
I37891
I38959
tp1161
I0
s(S'146.85.35.164'
p1162
S'12.38.236.38'
p1163
I15066
I62681
tp1164
I0
s(S'89.98.146.154'
p1165
S'111.167.193.110'
p1166
I59157
I31680
tp1167
I0
s(S'239.98.31.77'
p1168
S'105.99.7.243'
p1169
I26149
I18293
tp1170
I0
s(S'61.152.41.123'
p1171
S'56.253.189.68'
p1172
I20530
I17070
tp1173
I0
s(S'68.16.90.18'
p1174
S'208.97.240.184'
p1175
I50915
I37678
tp1176
I0
s(S'190.86.4.85'
p1177
S'30.171.19.10'
p1178
I40202
I20917
tp1179
I0
s(S'168.159.234.179'
p1180
S'120.6.3.57'
p1181
I49424
I201
tp1182
I0
s(S'110.102.127.56'
p1183
S'161.80.208.210'
p1184
I37768
I57239
tp1185
I0
s(S'251.79.11.123'
p1186
S'38.76.80.176'
p1187
I63494
I40091
tp1188
I1
s(S'93.239.212.241'
p1189
S'117.168.243.199'
p1190
I65127
I34801
tp1191
I1
s(S'94.22.8.44'
p1192
S'113.53.252.112'
p1193
I50016
I31809
tp1194
I0
s(S'65.154.202.146'
p1195
S'243.25.208.142'
p1196
I38887
I36059
tp1197
I1
s(S'165.2.46.55'
p1198
S'94.244.90.221'
p1199
I35806
I57054
tp1200
I0
s(S'85.52.70.150'
p1201
S'246.69.209.187'
p1202
I13926
I1281
tp1203
I1
s(S'204.46.226.24'
p1204
S'224.201.186.67'
p1205
I46990
I17677
tp1206
I0
s(S'236.113.37.82'
p1207
S'175.43.68.87'
p1208
I16139
I41748
tp1209
I0
s(S'50.127.113.203'
p1210
S'242.181.217.19'
p1211
I44163
I54077
tp1212
I0
s(S'111.88.60.84'
p1213
S'10.172.151.160'
p1214
I50299
I14861
tp1215
I0
s(S'104.197.88.66'
p1216
S'68.232.70.85'
p1217
I12587
I38154
tp1218
I1
s(S'248.194.198.209'
p1219
S'59.180.215.174'
p1220
I21867
I54413
tp1221
I0
s(S'190.75.0.199'
p1222
S'67.82.83.235'
p1223
I24115
I34828
tp1224
I1
s(S'50.64.83.188'
p1225
S'63.208.248.188'
p1226
I43327
I1391
tp1227
I1
s(S'144.205.82.106'
p1228
S'106.168.75.187'
p1229
I36743
I56389
tp1230
I1
s(S'162.121.206.193'
p1231
S'40.117.172.139'
p1232
I61149
I33699
tp1233
I1
s(S'14.226.91.125'
p1234
S'32.241.143.151'
p1235
I37734
I31375
tp1236
I0
s(S'85.62.25.14'
p1237
S'83.152.157.139'
p1238
I19701
I62308
tp1239
I0
s(S'12.60.83.126'
p1240
S'21.55.152.118'
p1241
I38381
I43432
tp1242
I0
s(S'127.209.49.130'
p1243
S'38.146.135.165'
p1244
I47319
I22599
tp1245
I0
s(S'236.212.241.127'
p1246
S'160.7.71.26'
p1247
I42107
I30482
tp1248
I0
s(S'83.52.95.217'
p1249
S'133.176.195.151'
p1250
I552
I34122
tp1251
I1
s(S'197.60.248.61'
p1252
S'49.25.33.41'
p1253
I12217
I37295
tp1254
I0
s(S'226.186.169.77'
p1255
S'222.187.68.218'
p1256
I20094
I29633
tp1257
I0
s(S'211.31.193.76'
p1258
S'57.248.34.218'
p1259
I23915
I4464
tp1260
I0
s(S'118.178.204.39'
p1261
S'189.205.104.81'
p1262
I19815
I57000
tp1263
I0
s(S'233.51.45.156'
p1264
S'82.73.102.165'
p1265
I19057
I42440
tp1266
I0
s(S'213.222.191.110'
p1267
S'108.244.125.2'
p1268
I54207
I23392
tp1269
I0
s(S'188.112.178.233'
p1270
S'48.165.90.82'
p1271
I34009
I33944
tp1272
I0
s(S'46.63.30.227'
p1273
S'14.230.176.165'
p1274
I46305
I46377
tp1275
I0
s(S'103.166.44.217'
p1276
S'16.53.185.28'
p1277
I27649
I61430
tp1278
I0
s(S'112.151.224.227'
p1279
S'98.254.15.144'
p1280
I13005
I17001
tp1281
I0
s(S'50.210.177.91'
p1282
S'69.106.71.5'
p1283
I48245
I13036
tp1284
I1
s(S'137.62.219.242'
p1285
S'116.97.90.169'
p1286
I56335
I5028
tp1287
I0
s(S'215.62.183.47'
p1288
S'78.180.156.229'
p1289
I11972
I35970
tp1290
I0
s(S'240.212.88.193'
p1291
S'225.218.158.80'
p1292
I6879
I55687
tp1293
I0
s(S'11.48.71.192'
p1294
S'58.153.24.205'
p1295
I10961
I57867
tp1296
I0
s(S'89.82.43.91'
p1297
S'27.149.140.163'
p1298
I52851
I47469
tp1299
I1
s(S'130.115.35.168'
p1300
S'21.224.73.206'
p1301
I46903
I11019
tp1302
I0
s(S'108.153.227.246'
p1303
S'151.150.14.158'
p1304
I32302
I21110
tp1305
I1
s(S'104.74.186.197'
p1306
S'57.190.71.76'
p1307
I21528
I22308
tp1308
I1
s(S'120.176.126.2'
p1309
S'142.147.233.242'
p1310
I38039
I10994
tp1311
I1
s(S'116.100.218.71'
p1312
S'250.111.211.38'
p1313
I1716
I5206
tp1314
I1
s(S'156.106.42.237'
p1315
S'42.227.95.251'
p1316
I42777
I6658
tp1317
I0
s(S'174.240.222.98'
p1318
S'41.68.28.214'
p1319
I64725
I10121
tp1320
I3
s(S'48.116.19.127'
p1321
S'45.18.114.33'
p1322
I19431
I51363
tp1323
I0
s(S'106.180.158.45'
p1324
S'232.32.21.152'
p1325
I8418
I55495
tp1326
I0
s(S'186.126.195.216'
p1327
S'145.3.16.39'
p1328
I2008
I29948
tp1329
I0
s(S'127.3.135.175'
p1330
S'176.46.79.211'
p1331
I3945
I11847
tp1332
I0
s(S'10.28.114.4'
p1333
S'33.52.158.62'
p1334
I48013
I5608
tp1335
I1
s(S'178.98.52.84'
p1336
S'33.156.235.248'
p1337
I12308
I55267
tp1338
I1
s(S'204.197.155.190'
p1339
S'210.205.168.146'
p1340
I61424
I40487
tp1341
I0
s(S'58.199.131.174'
p1342
S'243.87.245.183'
p1343
I14696
I28416
tp1344
I0
s(S'156.136.176.222'
p1345
S'249.32.175.64'
p1346
I9475
I13977
tp1347
I0
s(S'40.252.52.29'
p1348
S'84.123.88.144'
p1349
I23360
I18453
tp1350
I1
s(S'26.128.64.16'
p1351
S'23.164.1.202'
p1352
I2175
I41837
tp1353
I0
s(S'84.108.214.51'
p1354
S'153.115.21.163'
p1355
I14403
I36911
tp1356
I0
s(S'99.102.177.32'
p1357
S'169.7.103.245'
p1358
I46383
I63110
tp1359
I0
s(S'43.48.41.195'
p1360
S'77.31.2.73'
p1361
I13777
I23449
tp1362
I1
s(S'136.146.32.162'
p1363
S'24.117.243.249'
p1364
I47023
I2828
tp1365
I0
s(S'50.216.20.128'
p1366
S'142.140.172.102'
p1367
I44093
I34630
tp1368
I1
s(S'36.112.46.228'
p1369
S'202.55.29.16'
p1370
I1100
I34118
tp1371
I2
s(S'213.118.249.221'
p1372
S'77.17.12.159'
p1373
I61037
I4769
tp1374
I0
s(S'192.230.124.175'
p1375
S'85.132.147.21'
p1376
I35373
I4634
tp1377
I0
s(S'156.200.69.100'
p1378
S'61.244.40.106'
p1379
I12473
I57969
tp1380
I0
s(S'191.55.153.55'
p1381
S'75.86.141.203'
p1382
I25310
I53289
tp1383
I1
s(S'66.64.18.200'
p1384
S'146.83.64.78'
p1385
I15410
I22635
tp1386
I0
s(S'161.63.198.83'
p1387
S'123.226.84.105'
p1388
I14482
I40457
tp1389
I0
s(S'151.126.15.102'
p1390
S'78.148.141.161'
p1391
I53431
I57982
tp1392
I1
s(S'191.64.155.212'
p1393
S'104.120.64.149'
p1394
I38638
I1327
tp1395
I0
s(S'188.0.40.96'
p1396
S'160.52.57.86'
p1397
I61198
I21782
tp1398
I0
s(S'184.154.224.24'
p1399
S'166.159.178.239'
p1400
I6698
I35895
tp1401
I1
s(S'134.204.37.55'
p1402
S'156.40.110.150'
p1403
I2104
I2083
tp1404
I1
s(S'78.65.83.59'
p1405
S'97.185.130.14'
p1406
I32114
I36642
tp1407
I2
s(S'114.238.126.62'
p1408
S'38.225.97.254'
p1409
I41554
I2499
tp1410
I0
s(S'36.86.28.19'
p1411
S'222.197.115.31'
p1412
I51570
I21348
tp1413
I0
s(S'238.28.132.135'
p1414
S'67.211.153.20'
p1415
I3432
I18852
tp1416
I0
s(S'38.51.98.137'
p1417
S'121.170.89.117'
p1418
I48337
I9477
tp1419
I0
s(S'190.77.209.218'
p1420
S'61.190.224.171'
p1421
I45635
I27210
tp1422
I1
s(S'198.30.141.234'
p1423
S'157.217.37.163'
p1424
I14254
I4800
tp1425
I0
s(S'181.154.44.135'
p1426
S'42.108.63.77'
p1427
I39935
I6952
tp1428
I0
s(S'189.28.149.32'
p1429
S'210.12.100.246'
p1430
I34667
I55555
tp1431
I3
s(S'78.180.119.228'
p1432
S'150.159.174.15'
p1433
I62400
I47157
tp1434
I0
s(S'165.135.207.213'
p1435
S'17.129.16.72'
p1436
I23577
I29474
tp1437
I0
s(S'128.84.249.56'
p1438
S'95.35.54.113'
p1439
I10136
I15549
tp1440
I0
s(S'159.10.206.160'
p1441
S'66.68.254.150'
p1442
I60958
I28645
tp1443
I1
s(S'99.34.146.147'
p1444
S'105.62.96.228'
p1445
I44552
I40950
tp1446
I1
s(S'157.191.250.251'
p1447
S'139.138.48.65'
p1448
I38177
I50325
tp1449
I0
s(S'241.188.255.55'
p1450
S'121.203.160.36'
p1451
I53072
I64225
tp1452
I0
s(S'23.154.126.193'
p1453
S'167.236.185.141'
p1454
I27899
I38007
tp1455
I0
s(S'250.118.45.154'
p1456
S'136.21.71.143'
p1457
I13536
I49031
tp1458
I1
s(S'139.238.125.128'
p1459
S'202.14.255.92'
p1460
I3682
I31033
tp1461
I0
s(S'40.199.119.163'
p1462
S'44.148.4.226'
p1463
I4552
I21529
tp1464
I3
s(S'235.56.200.95'
p1465
S'248.244.194.86'
p1466
I17814
I39015
tp1467
I0
s(S'25.46.202.29'
p1468
S'191.74.181.34'
p1469
I1787
I35667
tp1470
I1
s(S'47.100.64.56'
p1471
S'231.21.189.223'
p1472
I26355
I46198
tp1473
I2
s(S'233.202.138.114'
p1474
S'138.251.9.238'
p1475
I239
I35461
tp1476
I2
s(S'158.239.28.117'
p1477
S'162.213.231.212'
p1478
I33185
I17136
tp1479
I0
s(S'119.37.47.222'
p1480
S'58.235.255.69'
p1481
I33545
I60741
tp1482
I0
s(S'209.22.16.146'
p1483
S'207.98.230.81'
p1484
I4219
I52989
tp1485
I0
s(S'50.78.22.62'
p1486
S'72.160.92.253'
p1487
I43589
I43001
tp1488
I2
s(S'59.175.17.39'
p1489
S'211.212.206.133'
p1490
I32391
I41796
tp1491
I0
s(S'203.247.239.228'
p1492
S'124.153.88.115'
p1493
I43201
I37309
tp1494
I0
s(S'16.117.0.209'
p1495
S'241.216.122.201'
p1496
I45681
I29420
tp1497
I0
s(S'101.56.234.116'
p1498
S'170.133.7.26'
p1499
I23030
I58575
tp1500
I0
s(S'77.132.23.32'
p1501
S'76.137.196.43'
p1502
I27858
I36922
tp1503
I0
s(S'188.121.134.7'
p1504
S'42.241.119.148'
p1505
I50137
I63990
tp1506
I0
s(S'133.154.148.98'
p1507
S'121.48.77.46'
p1508
I38371
I39860
tp1509
I0
s(S'206.179.43.46'
p1510
S'148.254.10.160'
p1511
I38584
I25710
tp1512
I0
s(S'232.72.77.98'
p1513
S'177.76.179.35'
p1514
I31569
I49765
tp1515
I1
s(S'202.166.34.218'
p1516
S'215.233.156.215'
p1517
I11171
I21713
tp1518
I0
s(S'146.172.15.93'
p1519
S'156.202.46.48'
p1520
I7030
I62215
tp1521
I1
s(S'150.16.70.126'
p1522
S'251.182.152.168'
p1523
I15352
I36737
tp1524
I0
s(S'69.85.111.88'
p1525
S'104.64.83.76'
p1526
I21500
I52199
tp1527
I0
s(S'52.16.144.15'
p1528
S'222.202.51.85'
p1529
I64623
I21133
tp1530
I1
s(S'108.11.211.11'
p1531
S'182.133.166.24'
p1532
I58748
I21342
tp1533
I1
s(S'245.136.227.24'
p1534
S'83.242.138.46'
p1535
I18223
I36637
tp1536
I0
s(S'116.2.44.234'
p1537
S'242.144.207.96'
p1538
I49947
I25621
tp1539
I1
s(S'160.112.97.224'
p1540
S'243.123.112.154'
p1541
I51386
I22109
tp1542
I1
s(S'91.87.88.34'
p1543
S'219.68.16.129'
p1544
I46653
I37709
tp1545
I0
s(S'49.190.60.160'
p1546
S'109.80.206.227'
p1547
I60043
I1638
tp1548
I2
s(S'177.200.199.88'
p1549
S'113.110.239.176'
p1550
I34376
I42246
tp1551
I0
s(S'29.78.78.158'
p1552
S'104.75.140.35'
p1553
I34969
I34347
tp1554
I0
s(S'168.11.88.26'
p1555
S'52.15.207.142'
p1556
I4145
I29230
tp1557
I0
s(S'51.59.96.16'
p1558
S'105.166.253.110'
p1559
I51967
I46670
tp1560
I1
s(S'201.134.136.47'
p1561
S'27.248.58.220'
p1562
I32627
I55794
tp1563
I0
s(S'167.189.15.193'
p1564
S'35.193.202.29'
p1565
I44126
I17029
tp1566
I0
s(S'41.139.250.2'
p1567
S'143.89.183.23'
p1568
I4472
I14421
tp1569
I0
s(S'163.197.169.93'
p1570
S'145.136.91.54'
p1571
I5575
I48975
tp1572
I2
s(S'167.123.142.78'
p1573
S'186.85.7.227'
p1574
I2913
I3474
tp1575
I0
s(S'228.91.220.183'
p1576
S'199.184.230.122'
p1577
I9785
I49582
tp1578
I1
s(S'124.255.191.148'
p1579
S'112.64.20.23'
p1580
I41771
I2167
tp1581
I0
s(S'25.22.84.170'
p1582
S'169.241.125.212'
p1583
I50411
I50967
tp1584
I1
s(S'212.57.54.85'
p1585
S'80.86.243.0'
p1586
I60160
I59603
tp1587
I0
s(S'67.176.176.237'
p1588
S'69.234.70.186'
p1589
I24858
I5702
tp1590
I2
s(S'187.103.148.95'
p1591
S'213.91.80.151'
p1592
I28454
I27781
tp1593
I0
s(S'158.156.82.220'
p1594
S'73.46.39.75'
p1595
I31996
I40922
tp1596
I2
s(S'64.152.124.77'
p1597
S'198.201.119.137'
p1598
I45024
I14282
tp1599
I1
s(S'183.113.11.17'
p1600
S'186.0.27.90'
p1601
I40741
I63919
tp1602
I0
s(S'63.127.78.159'
p1603
S'236.71.41.176'
p1604
I21856
I27888
tp1605
I1
s(S'218.151.2.96'
p1606
S'71.243.248.59'
p1607
I10445
I44347
tp1608
I0
s(S'195.57.65.131'
p1609
S'178.167.213.250'
p1610
I34995
I6946
tp1611
I1
s(S'137.200.233.188'
p1612
S'240.31.148.62'
p1613
I8143
I5496
tp1614
I2
s(S'58.230.112.181'
p1615
S'40.167.160.131'
p1616
I8561
I42158
tp1617
I0
s(S'41.172.22.128'
p1618
S'25.246.71.81'
p1619
I46471
I28694
tp1620
I1
s(S'47.113.247.143'
p1621
S'94.47.113.213'
p1622
I63908
I43461
tp1623
I1
s(S'75.226.191.4'
p1624
S'63.229.26.76'
p1625
I52708
I26766
tp1626
I0
s(S'193.233.162.217'
p1627
S'66.148.233.26'
p1628
I35195
I33232
tp1629
I0
s(S'64.153.111.232'
p1630
S'110.54.228.200'
p1631
I64524
I54533
tp1632
I0
s(S'184.218.35.198'
p1633
S'183.244.120.37'
p1634
I39180
I41622
tp1635
I0
s(S'52.29.106.221'
p1636
S'45.28.82.132'
p1637
I19853
I62853
tp1638
I0
s(S'18.11.241.38'
p1639
S'58.209.77.198'
p1640
I19390
I23233
tp1641
I0
s(S'46.20.115.203'
p1642
S'117.255.132.192'
p1643
I38868
I3835
tp1644
I1
s(S'154.9.28.5'
p1645
S'128.110.123.9'
p1646
I2987
I25962
tp1647
I0
s(S'192.39.131.216'
p1648
S'241.173.13.20'
p1649
I15660
I34397
tp1650
I1
s(S'44.140.238.198'
p1651
S'173.108.143.31'
p1652
I28872
I17105
tp1653
I1
s(S'197.226.33.200'
p1654
S'98.156.99.108'
p1655
I45691
I42076
tp1656
I1
s(S'139.25.54.68'
p1657
S'165.136.18.54'
p1658
I54328
I16133
tp1659
I0
s(S'221.46.51.130'
p1660
S'51.32.186.30'
p1661
I6232
I43355
tp1662
I0
s(S'212.89.125.139'
p1663
S'71.36.155.218'
p1664
I12670
I1510
tp1665
I1
s(S'100.234.246.14'
p1666
S'64.5.37.187'
p1667
I15722
I40482
tp1668
I1
s(S'52.86.21.135'
p1669
S'148.41.244.33'
p1670
I48850
I25303
tp1671
I0
s(S'211.154.41.169'
p1672
S'234.183.209.140'
p1673
I46962
I50171
tp1674
I0
s(S'128.221.16.226'
p1675
S'128.59.253.195'
p1676
I40611
I39313
tp1677
I0
s(S'191.89.175.75'
p1678
S'170.86.92.15'
p1679
I50863
I17949
tp1680
I0
s(S'235.6.254.249'
p1681
S'138.170.139.108'
p1682
I9473
I25643
tp1683
I1
s(S'144.122.221.237'
p1684
S'93.210.5.153'
p1685
I21258
I31368
tp1686
I1
s(S'143.140.188.234'
p1687
S'168.12.68.228'
p1688
I1361
I24667
tp1689
I1
s(S'45.89.37.16'
p1690
S'99.9.85.75'
p1691
I58104
I43894
tp1692
I1
s(S'203.185.195.81'
p1693
S'151.235.86.71'
p1694
I14676
I1916
tp1695
I1
s(S'60.24.187.118'
p1696
S'16.115.83.137'
p1697
I33471
I4755
tp1698
I1
s(S'122.234.205.22'
p1699
S'67.11.74.72'
p1700
I6365
I21351
tp1701
I1
s(S'26.192.229.147'
p1702
S'164.230.233.144'
p1703
I33671
I13988
tp1704
I2
s(S'10.145.212.133'
p1705
S'32.128.218.160'
p1706
I14346
I25025
tp1707
I0
s(S'247.221.59.253'
p1708
S'211.113.251.211'
p1709
I49804
I59618
tp1710
I0
s(S'235.29.225.114'
p1711
S'208.157.117.181'
p1712
I53954
I24250
tp1713
I451
s(S'13.51.223.161'
p1714
S'196.239.213.129'
p1715
I46241
I36926
tp1716
I0
s(S'50.70.121.154'
p1717
S'223.224.224.157'
p1718
I13592
I48945
tp1719
I1
s(S'210.72.96.197'
p1720
S'160.148.43.238'
p1721
I51874
I43727
tp1722
I1
s(S'250.201.30.178'
p1723
S'102.88.102.187'
p1724
I36805
I40369
tp1725
I1
s(S'189.49.187.66'
p1726
S'174.73.254.243'
p1727
I26598
I12481
tp1728
I1
s(S'89.135.154.171'
p1729
S'85.191.116.111'
p1730
I25870
I17728
tp1731
I0
s(S'118.246.143.165'
p1732
S'144.36.253.21'
p1733
I10093
I15230
tp1734
I1
s(S'83.239.115.192'
p1735
S'68.70.225.125'
p1736
I14293
I13222
tp1737
I1
s(S'116.105.104.202'
p1738
S'235.8.174.61'
p1739
I16843
I7049
tp1740
I0
s(S'174.176.250.171'
p1741
S'143.236.2.44'
p1742
I42333
I52362
tp1743
I2
s(S'26.171.63.207'
p1744
S'19.205.140.66'
p1745
I338
I38774
tp1746
I1
s(S'61.147.111.87'
p1747
S'84.45.9.175'
p1748
I56082
I56413
tp1749
I0
s(S'89.49.64.202'
p1750
S'40.68.71.154'
p1751
I13122
I50278
tp1752
I0
s(S'53.250.224.15'
p1753
S'94.133.187.152'
p1754
I20872
I16378
tp1755
I2
s(S'242.43.16.136'
p1756
S'105.167.209.34'
p1757
I14276
I20374
tp1758
I0
s(S'225.184.216.207'
p1759
S'80.184.229.244'
p1760
I21558
I59551
tp1761
I1
s(S'233.79.206.219'
p1762
S'30.195.141.104'
p1763
I1370
I5007
tp1764
I1
s(S'168.213.177.229'
p1765
S'159.195.0.137'
p1766
I25296
I49311
tp1767
I0
s(S'111.57.185.254'
p1768
S'224.77.62.40'
p1769
I39231
I45835
tp1770
I0
s(S'212.133.45.98'
p1771
S'73.9.79.101'
p1772
I33646
I1378
tp1773
I0
s(S'159.113.107.19'
p1774
S'94.190.142.150'
p1775
I12603
I61181
tp1776
I1
s(S'21.12.219.220'
p1777
S'178.164.114.71'
p1778
I56008
I47779
tp1779
I2
s(S'126.107.109.185'
p1780
S'79.241.86.229'
p1781
I40061
I63090
tp1782
I0
s(S'84.237.145.72'
p1783
S'34.227.158.222'
p1784
I53464
I33213
tp1785
I0
s(S'78.88.147.240'
p1786
S'139.84.80.69'
p1787
I7987
I63523
tp1788
I0
s(S'208.224.242.207'
p1789
S'165.100.93.184'
p1790
I60269
I29300
tp1791
I0
s(S'154.238.171.79'
p1792
S'128.83.96.219'
p1793
I48294
I48119
tp1794
I0
s(S'225.225.152.83'
p1795
S'64.45.48.170'
p1796
I44871
I28165
tp1797
I0
s(S'204.216.137.5'
p1798
S'173.124.62.114'
p1799
I48549
I18497
tp1800
I1
s(S'115.189.76.52'
p1801
S'241.248.124.131'
p1802
I51117
I52118
tp1803
I2
s(S'197.0.54.9'
p1804
S'52.67.95.226'
p1805
I44908
I55849
tp1806
I1
s(S'195.40.224.89'
p1807
S'16.83.138.208'
p1808
I52758
I41246
tp1809
I0
s(S'154.5.120.129'
p1810
S'42.61.238.108'
p1811
I57374
I61601
tp1812
I2
s(S'155.184.82.52'
p1813
S'28.53.25.102'
p1814
I1482
I42144
tp1815
I1
s(S'166.235.26.188'
p1816
S'113.192.213.187'
p1817
I32417
I48736
tp1818
I0
s(S'239.198.1.113'
p1819
S'217.64.66.199'
p1820
I26384
I45905
tp1821
I0
s(S'31.47.174.192'
p1822
S'247.211.20.18'
p1823
I31420
I11244
tp1824
I0
s(S'32.136.11.126'
p1825
S'156.174.12.99'
p1826
I20209
I42072
tp1827
I0
s(S'215.135.234.40'
p1828
S'67.234.124.70'
p1829
I8782
I52739
tp1830
I0
s(S'243.94.226.129'
p1831
S'83.201.57.17'
p1832
I3797
I6908
tp1833
I1
s(S'218.82.124.157'
p1834
S'130.244.233.49'
p1835
I65239
I35814
tp1836
I1
s(S'50.169.201.210'
p1837
S'167.49.22.247'
p1838
I26227
I43334
tp1839
I1
s(S'232.7.248.3'
p1840
S'61.242.82.53'
p1841
I26870
I19431
tp1842
I0
s(S'151.226.189.46'
p1843
S'65.189.70.197'
p1844
I32567
I56461
tp1845
I0
s(S'217.32.228.10'
p1846
S'48.26.229.49'
p1847
I47097
I37486
tp1848
I0
s(S'61.147.67.231'
p1849
S'136.87.229.53'
p1850
I38416
I60018
tp1851
I0
s(S'66.229.88.244'
p1852
S'96.118.165.114'
p1853
I11499
I9124
tp1854
I1
s(S'118.25.112.49'
p1855
S'128.245.149.133'
p1856
I60008
I25864
tp1857
I0
s(S'241.134.70.43'
p1858
S'105.204.14.175'
p1859
I47896
I61637
tp1860
I1
s(S'183.192.59.38'
p1861
S'246.95.252.194'
p1862
I25540
I29870
tp1863
I0
s(S'169.41.98.91'
p1864
S'70.250.73.131'
p1865
I11522
I40702
tp1866
I1
s(S'176.190.192.152'
p1867
S'234.48.81.212'
p1868
I47873
I54312
tp1869
I0
s(S'65.13.47.136'
p1870
S'52.201.149.224'
p1871
I52900
I53189
tp1872
I0
s(S'101.127.206.45'
p1873
S'238.243.87.214'
p1874
I4705
I2129
tp1875
I0
s(S'173.81.88.160'
p1876
S'203.123.176.143'
p1877
I13190
I22638
tp1878
I1
s(S'223.180.167.139'
p1879
S'129.155.120.106'
p1880
I41153
I54960
tp1881
I2
s(S'247.219.134.81'
p1882
S'252.182.83.76'
p1883
I63599
I20153
tp1884
I1
s(S'22.219.16.107'
p1885
S'99.0.149.249'
p1886
I36156
I3252
tp1887
I0
s(S'115.111.70.39'
p1888
S'182.36.235.26'
p1889
I29375
I29522
tp1890
I1
s(S'169.10.241.201'
p1891
S'65.83.234.93'
p1892
I17384
I20375
tp1893
I0
s(S'84.133.110.253'
p1894
S'229.31.243.238'
p1895
I3044
I2968
tp1896
I1
s(S'62.123.20.14'
p1897
S'81.253.17.21'
p1898
I26235
I45527
tp1899
I0
s(S'86.233.124.237'
p1900
S'47.199.106.130'
p1901
I45389
I51384
tp1902
I0
s(S'46.15.193.21'
p1903
S'60.254.93.249'
p1904
I48201
I40334
tp1905
I1
s(S'131.202.3.153'
p1906
S'26.198.17.90'
p1907
I33464
I20924
tp1908
I0
s(S'35.211.219.19'
p1909
S'152.223.17.26'
p1910
I48100
I14189
tp1911
I0
s(S'53.39.121.144'
p1912
S'167.230.13.161'
p1913
I42054
I7452
tp1914
I1
s(S'155.25.177.196'
p1915
S'133.140.112.119'
p1916
I8737
I48981
tp1917
I0
s(S'172.147.93.70'
p1918
S'209.66.26.207'
p1919
I55149
I2639
tp1920
I0
s(S'38.136.219.179'
p1921
S'71.22.222.152'
p1922
I53909
I36978
tp1923
I0
s(S'201.231.32.130'
p1924
S'38.39.137.2'
p1925
I17628
I29996
tp1926
I0
s(S'69.212.122.83'
p1927
S'79.231.62.37'
p1928
I32786
I45685
tp1929
I1
s(S'164.41.177.23'
p1930
S'246.44.233.92'
p1931
I35250
I48787
tp1932
I0
s(S'148.143.37.12'
p1933
S'177.103.164.227'
p1934
I52613
I43006
tp1935
I0
s(S'146.180.62.187'
p1936
S'91.89.126.42'
p1937
I46570
I5853
tp1938
I0
s(S'129.169.17.70'
p1939
S'67.35.61.211'
p1940
I48580
I5582
tp1941
I0
s(S'250.91.217.37'
p1942
S'161.129.77.222'
p1943
I55767
I61041
tp1944
I0
s(S'60.47.82.0'
p1945
S'174.176.114.79'
p1946
I5365
I923
tp1947
I2
s(S'125.247.34.254'
p1948
S'135.250.195.190'
p1949
I51704
I46827
tp1950
I0
s(S'15.42.142.254'
p1951
S'175.206.142.0'
p1952
I6096
I24929
tp1953
I0
s(S'152.202.66.244'
p1954
S'34.100.179.31'
p1955
I50088
I54568
tp1956
I0
s(S'246.47.139.155'
p1957
S'116.117.144.224'
p1958
I28004
I24975
tp1959
I0
s(S'95.231.99.158'
p1960
S'153.66.95.5'
p1961
I59628
I11922
tp1962
I0
s(S'174.7.119.197'
p1963
S'211.120.35.112'
p1964
I61028
I62022
tp1965
I3
s(S'32.79.5.91'
p1966
S'181.214.21.4'
p1967
I120
I55476
tp1968
I0
s(S'224.9.213.223'
p1969
S'97.176.138.233'
p1970
I29792
I55009
tp1971
I1
s(S'47.100.128.223'
p1972
S'161.7.78.229'
p1973
I44676
I59495
tp1974
I0
s(S'97.224.207.207'
p1975
S'142.104.101.147'
p1976
I5685
I26837
tp1977
I1
s(S'143.208.160.235'
p1978
S'201.1.78.162'
p1979
I45321
I12177
tp1980
I0
s(S'45.213.185.139'
p1981
S'83.27.129.141'
p1982
I61831
I63450
tp1983
I0
s(S'90.94.15.9'
p1984
S'113.115.47.74'
p1985
I14611
I40684
tp1986
I0
s(S'242.183.175.165'
p1987
S'15.74.65.192'
p1988
I8806
I13549
tp1989
I2
s(S'230.208.15.15'
p1990
S'41.155.77.147'
p1991
I57284
I55385
tp1992
I0
s(S'168.223.163.231'
p1993
S'240.188.221.12'
p1994
I1436
I28136
tp1995
I1
s(S'220.196.169.55'
p1996
S'231.227.166.161'
p1997
I10408
I31156
tp1998
I0
s(S'129.84.196.130'
p1999
S'210.69.100.1'
p2000
I15826
I54423
tp2001
I2
s(S'76.176.254.233'
p2002
S'136.39.164.100'
p2003
I31976
I2168
tp2004
I0
s(S'132.248.20.129'
p2005
S'54.45.85.55'
p2006
I40030
I31997
tp2007
I0
s(S'103.34.222.22'
p2008
S'159.203.241.22'
p2009
I19177
I43964
tp2010
I0
s(S'92.133.170.184'
p2011
S'114.117.102.124'
p2012
I38113
I44005
tp2013
I430
s(S'38.147.87.188'
p2014
S'246.51.25.79'
p2015
I63145
I20242
tp2016
I0
s(S'118.185.222.218'
p2017
S'158.107.34.141'
p2018
I11954
I31644
tp2019
I0
s(S'165.211.151.179'
p2020
S'195.70.39.149'
p2021
I39795
I55616
tp2022
I1
s(S'73.77.84.245'
p2023
S'92.80.208.49'
p2024
I8345
I52008
tp2025
I2
s(S'228.168.153.87'
p2026
S'156.216.240.128'
p2027
I53408
I55990
tp2028
I0
s(S'12.121.155.167'
p2029
S'175.43.155.109'
p2030
I51989
I30770
tp2031
I1
s(S'13.22.195.220'
p2032
S'224.36.22.186'
p2033
I19538
I25705
tp2034
I0
s(S'39.10.129.86'
p2035
S'86.58.107.122'
p2036
I6478
I50238
tp2037
I0
s(S'62.19.227.54'
p2038
S'152.25.91.141'
p2039
I5749
I49684
tp2040
I1
s(S'226.185.189.104'
p2041
S'159.180.93.237'
p2042
I33032
I39262
tp2043
I1
s(S'28.38.120.199'
p2044
S'174.194.93.212'
p2045
I14859
I24771
tp2046
I0
s(S'160.232.250.196'
p2047
S'86.25.237.154'
p2048
I64994
I39902
tp2049
I0
s(S'68.50.147.143'
p2050
S'125.217.183.226'
p2051
I22329
I21379
tp2052
I1
s(S'123.161.24.211'
p2053
S'142.113.237.236'
p2054
I8795
I52521
tp2055
I1
s(S'189.201.95.131'
p2056
S'166.208.100.129'
p2057
I692
I62489
tp2058
I1
s(S'13.235.59.224'
p2059
S'176.55.151.55'
p2060
I14160
I56695
tp2061
I0
s(S'220.16.80.37'
p2062
S'162.244.19.126'
p2063
I36625
I18014
tp2064
I0
s(S'206.131.93.163'
p2065
S'148.72.30.124'
p2066
I1588
I51307
tp2067
I1
s(S'242.11.201.165'
p2068
S'34.223.212.181'
p2069
I48982
I252
tp2070
I0
s(S'234.45.219.103'
p2071
S'174.58.150.90'
p2072
I42281
I51782
tp2073
I1
s(S'176.97.35.106'
p2074
S'36.216.66.44'
p2075
I37835
I54202
tp2076
I0
s(S'143.136.253.167'
p2077
S'107.119.22.40'
p2078
I30064
I22134
tp2079
I1
s(S'53.211.148.201'
p2080
S'25.240.129.91'
p2081
I57761
I32359
tp2082
I0
s(S'208.173.77.128'
p2083
S'229.32.78.228'
p2084
I32621
I34394
tp2085
I3
s(S'66.94.170.130'
p2086
S'17.152.97.71'
p2087
I26900
I14521
tp2088
I0
s(S'25.135.137.189'
p2089
S'149.188.65.93'
p2090
I8295
I8767
tp2091
I1
s(S'74.64.192.89'
p2092
S'13.142.39.60'
p2093
I41922
I7270
tp2094
I1
s(S'231.221.83.199'
p2095
S'93.42.245.162'
p2096
I128
I35402
tp2097
I0
s(S'216.165.19.172'
p2098
S'214.7.140.230'
p2099
I27571
I13988
tp2100
I0
s(S'50.250.54.68'
p2101
S'93.252.224.230'
p2102
I64410
I58181
tp2103
I0
s(S'35.114.75.112'
p2104
S'32.147.188.231'
p2105
I11363
I7378
tp2106
I0
s(S'122.228.26.251'
p2107
S'137.100.7.2'
p2108
I52109
I54515
tp2109
I2
s(S'218.97.94.121'
p2110
S'231.167.132.166'
p2111
I14066
I25966
tp2112
I1
s(S'164.14.160.82'
p2113
S'222.61.68.249'
p2114
I64631
I17206
tp2115
I0
s(S'225.178.10.115'
p2116
S'78.91.70.152'
p2117
I41413
I63568
tp2118
I452
s(S'184.215.173.97'
p2119
S'185.47.162.249'
p2120
I34615
I33298
tp2121
I0
s(S'22.50.34.105'
p2122
S'221.54.80.225'
p2123
I29307
I15893
tp2124
I0
s(S'158.130.176.203'
p2125
S'151.246.112.90'
p2126
I44375
I35335
tp2127
I0
s(S'225.219.84.175'
p2128
S'84.232.154.203'
p2129
I13048
I8071
tp2130
I1
s(S'118.201.135.74'
p2131
S'43.161.237.160'
p2132
I53908
I18037
tp2133
I0
s(S'166.29.95.181'
p2134
S'74.113.165.37'
p2135
I25191
I16726
tp2136
I0
s(S'87.253.90.56'
p2137
S'27.237.219.69'
p2138
I59447
I45151
tp2139
I0
s(S'182.126.10.32'
p2140
S'127.212.3.36'
p2141
I12248
I15494
tp2142
I0
s(S'242.96.248.25'
p2143
S'60.196.11.113'
p2144
I28588
I23120
tp2145
I1
s(S'233.83.24.26'
p2146
S'136.8.188.26'
p2147
I26040
I26558
tp2148
I0
s(S'35.64.209.210'
p2149
S'138.170.38.238'
p2150
I28520
I16414
tp2151
I0
s(S'53.86.160.137'
p2152
S'28.166.135.60'
p2153
I41023
I47011
tp2154
I1
s(S'237.153.111.205'
p2155
S'250.186.238.56'
p2156
I15080
I19277
tp2157
I1
s(S'28.250.199.46'
p2158
S'203.137.131.220'
p2159
I61706
I42602
tp2160
I0
s(S'187.247.52.140'
p2161
S'41.136.6.134'
p2162
I28125
I17535
tp2163
I0
s(S'226.109.252.117'
p2164
S'73.249.213.57'
p2165
I18409
I16549
tp2166
I1
s(S'137.15.244.151'
p2167
S'80.167.145.73'
p2168
I52198
I11653
tp2169
I0
s(S'122.244.33.177'
p2170
S'128.40.91.9'
p2171
I34695
I19669
tp2172
I0
s(S'44.106.232.20'
p2173
S'57.171.73.232'
p2174
I27175
I27758
tp2175
I0
s(S'89.103.130.11'
p2176
S'176.91.18.56'
p2177
I36504
I11262
tp2178
I0
s(S'234.227.139.132'
p2179
S'200.177.84.215'
p2180
I8733
I11477
tp2181
I0
s(S'115.43.113.128'
p2182
S'247.97.118.216'
p2183
I21578
I18108
tp2184
I1
s(S'192.167.27.174'
p2185
S'21.133.254.141'
p2186
I63497
I32742
tp2187
I1
s(S'59.141.105.74'
p2188
S'221.150.130.34'
p2189
I41521
I17567
tp2190
I0
s(S'24.125.24.96'
p2191
S'38.218.133.248'
p2192
I52652
I38350
tp2193
I0
s(S'200.200.41.132'
p2194
S'52.45.234.35'
p2195
I52600
I44734
tp2196
I0
s(S'223.207.141.176'
p2197
S'78.98.78.153'
p2198
I37783
I55626
tp2199
I443
s(S'125.200.42.50'
p2200
S'31.105.119.100'
p2201
I17818
I34027
tp2202
I0
s(S'196.245.122.109'
p2203
S'19.134.192.130'
p2204
I37214
I38841
tp2205
I2
s(S'195.154.128.252'
p2206
S'128.45.44.85'
p2207
I30418
I56038
tp2208
I1
s(S'224.139.80.70'
p2209
S'39.154.169.146'
p2210
I22389
I49082
tp2211
I0
s(S'203.186.75.197'
p2212
S'12.144.146.119'
p2213
I36824
I23162
tp2214
I0
s(S'242.40.155.38'
p2215
S'207.33.200.93'
p2216
I12341
I35123
tp2217
I0
s(S'57.204.80.154'
p2218
S'140.130.243.224'
p2219
I64699
I23721
tp2220
I0
s(S'180.254.237.185'
p2221
S'59.178.199.180'
p2222
I50304
I51037
tp2223
I3
s(S'94.241.132.79'
p2224
S'145.29.145.48'
p2225
I52809
I55116
tp2226
I1
s(S'104.159.229.86'
p2227
S'53.26.69.170'
p2228
I64433
I13134
tp2229
I0
s(S'16.178.231.104'
p2230
S'229.252.39.83'
p2231
I46553
I44943
tp2232
I1
s(S'172.201.221.5'
p2233
S'162.68.235.152'
p2234
I38253
I29015
tp2235
I0
s(S'87.255.248.209'
p2236
S'216.37.0.97'
p2237
I22605
I35685
tp2238
I0
s(S'150.230.136.172'
p2239
S'237.143.94.117'
p2240
I35080
I19329
tp2241
I2
s(S'114.249.160.89'
p2242
S'129.70.70.198'
p2243
I58547
I34955
tp2244
I0
s(S'94.253.67.32'
p2245
S'139.164.157.174'
p2246
I23318
I51785
tp2247
I3
s(S'55.122.13.56'
p2248
S'214.91.247.200'
p2249
I60067
I46259
tp2250
I3
s(S'48.67.119.210'
p2251
S'191.108.68.233'
p2252
I6624
I43416
tp2253
I0
s(S'161.159.128.250'
p2254
S'105.173.120.111'
p2255
I10089
I27734
tp2256
I0
s(S'73.152.242.130'
p2257
S'108.215.209.228'
p2258
I49633
I23526
tp2259
I0
s(S'106.181.32.225'
p2260
S'29.156.21.27'
p2261
I29620
I57993
tp2262
I1
s(S'14.94.131.138'
p2263
S'105.114.45.95'
p2264
I33805
I4288
tp2265
I0
s(S'37.165.150.76'
p2266
S'240.172.98.225'
p2267
I41266
I39755
tp2268
I0
s(S'101.163.38.199'
p2269
S'170.169.1.69'
p2270
I1180
I63874
tp2271
I0
s(S'119.242.115.62'
p2272
S'44.212.38.210'
p2273
I52945
I19800
tp2274
I0
s(S'32.16.58.27'
p2275
S'72.218.19.133'
p2276
I41765
I42246
tp2277
I0
s(S'249.82.42.128'
p2278
S'75.91.40.242'
p2279
I64640
I27947
tp2280
I0
s(S'169.66.53.91'
p2281
S'98.187.247.132'
p2282
I13212
I2989
tp2283
I1
s(S'108.37.25.109'
p2284
S'170.155.25.6'
p2285
I11941
I65513
tp2286
I0
s(S'239.238.15.37'
p2287
S'136.17.168.246'
p2288
I58105
I55624
tp2289
I1
s(S'224.59.69.74'
p2290
S'155.234.7.107'
p2291
I11843
I22000
tp2292
I0
s(S'112.208.105.147'
p2293
S'153.63.51.30'
p2294
I55668
I30830
tp2295
I0
s(S'36.142.132.162'
p2296
S'34.67.113.236'
p2297
I34962
I57405
tp2298
I0
s(S'89.187.206.50'
p2299
S'211.135.43.227'
p2300
I16951
I24525
tp2301
I0
s(S'144.197.185.94'
p2302
S'57.146.101.190'
p2303
I14309
I49228
tp2304
I0
s(S'166.69.143.72'
p2305
S'224.26.228.146'
p2306
I16729
I48825
tp2307
I0
s(S'203.254.197.236'
p2308
S'72.112.147.110'
p2309
I22490
I4691
tp2310
I1
s(S'143.24.240.150'
p2311
S'157.53.113.184'
p2312
I64130
I49715
tp2313
I1
s(S'204.21.164.223'
p2314
S'20.137.90.85'
p2315
I57532
I35967
tp2316
I0
s(S'162.222.80.230'
p2317
S'234.247.96.125'
p2318
I11803
I62602
tp2319
I0
s(S'107.193.67.47'
p2320
S'156.72.112.251'
p2321
I33629
I3519
tp2322
I0
s(S'126.7.99.176'
p2323
S'142.12.27.154'
p2324
I63015
I22980
tp2325
I0
s(S'111.141.214.241'
p2326
S'243.238.14.215'
p2327
I55445
I28073
tp2328
I2
s(S'16.187.254.135'
p2329
S'208.82.17.116'
p2330
I46773
I11936
tp2331
I0
s(S'152.236.90.226'
p2332
S'244.24.75.55'
p2333
I23808
I61653
tp2334
I2
s(S'192.152.36.254'
p2335
S'25.173.56.184'
p2336
I40082
I28290
tp2337
I0
s(S'217.251.164.112'
p2338
S'58.210.246.9'
p2339
I41336
I41271
tp2340
I0
s(S'141.11.189.224'
p2341
S'201.153.51.102'
p2342
I37769
I48310
tp2343
I1
s(S'209.172.34.16'
p2344
S'62.6.144.144'
p2345
I47417
I58469
tp2346
I1
s(S'152.254.163.175'
p2347
S'214.226.22.236'
p2348
I35446
I13742
tp2349
I0
s(S'130.121.189.224'
p2350
S'82.218.129.136'
p2351
I29452
I11615
tp2352
I1
s(S'206.123.245.205'
p2353
S'100.187.169.126'
p2354
I14172
I13846
tp2355
I0
s(S'251.102.108.67'
p2356
S'196.98.205.235'
p2357
I54609
I57898
tp2358
I0
s(S'243.204.111.120'
p2359
S'93.122.120.145'
p2360
I55352
I55282
tp2361
I0
s(S'123.42.12.214'
p2362
S'65.114.233.197'
p2363
I55980
I14939
tp2364
I2
s(S'15.26.38.196'
p2365
S'86.165.102.213'
p2366
I7247
I18257
tp2367
I0
s(S'136.154.131.246'
p2368
S'27.40.174.192'
p2369
I2051
I46773
tp2370
I2
s(S'20.45.254.73'
p2371
S'16.141.67.254'
p2372
I38135
I40248
tp2373
I0
s(S'60.9.194.80'
p2374
S'211.76.217.37'
p2375
I40315
I25736
tp2376
I0
s(S'38.6.249.95'
p2377
S'244.186.49.49'
p2378
I62021
I60946
tp2379
I1
s(S'198.176.147.223'
p2380
S'179.122.14.178'
p2381
I54021
I44987
tp2382
I1
s(S'41.237.76.16'
p2383
S'62.133.237.25'
p2384
I43507
I11005
tp2385
I0
s(S'82.68.35.105'
p2386
S'46.26.67.223'
p2387
I13076
I4663
tp2388
I0
s(S'73.209.155.24'
p2389
S'197.67.220.196'
p2390
I7771
I30889
tp2391
I0
s(S'181.44.105.217'
p2392
S'221.88.233.174'
p2393
I23362
I25439
tp2394
I0
s(S'239.111.167.192'
p2395
S'211.49.88.115'
p2396
I50012
I33349
tp2397
I0
s(S'123.236.122.165'
p2398
S'87.176.216.150'
p2399
I52372
I18347
tp2400
I0
s(S'122.223.248.35'
p2401
S'19.4.229.170'
p2402
I56946
I15512
tp2403
I1
s(S'68.182.142.93'
p2404
S'56.154.146.240'
p2405
I54578
I16273
tp2406
I0
s(S'172.202.252.56'
p2407
S'185.88.250.16'
p2408
I39379
I62724
tp2409
I0
s(S'202.147.20.221'
p2410
S'31.254.135.157'
p2411
I44704
I29166
tp2412
I1
s(S'148.60.196.7'
p2413
S'233.232.51.243'
p2414
I25744
I43637
tp2415
I1
s(S'196.39.248.31'
p2416
S'15.63.172.129'
p2417
I1912
I12897
tp2418
I1
s(S'149.176.97.133'
p2419
S'240.94.234.214'
p2420
I50025
I38551
tp2421
I0
s(S'101.112.178.228'
p2422
S'245.253.19.93'
p2423
I44574
I43604
tp2424
I1
s(S'91.208.65.70'
p2425
S'159.116.139.221'
p2426
I45915
I59945
tp2427
I0
s(S'112.196.181.75'
p2428
S'229.218.204.2'
p2429
I15431
I59405
tp2430
I0
s(S'21.142.74.236'
p2431
S'171.120.114.108'
p2432
I58717
I12614
tp2433
I1
s(S'242.91.159.95'
p2434
S'77.221.146.185'
p2435
I32270
I62687
tp2436
I0
s(S'73.9.142.187'
p2437
S'93.104.172.101'
p2438
I64999
I9993
tp2439
I1
s(S'167.174.82.8'
p2440
S'137.231.135.84'
p2441
I43233
I22463
tp2442
I0
s(S'141.174.85.160'
p2443
S'70.91.54.179'
p2444
I36079
I57986
tp2445
I0
s(S'159.96.252.126'
p2446
S'245.249.50.48'
p2447
I48257
I32328
tp2448
I3
s(S'76.12.246.231'
p2449
S'195.164.78.116'
p2450
I59103
I38612
tp2451
I2
s(S'146.151.216.125'
p2452
S'216.252.137.39'
p2453
I61402
I32602
tp2454
I0
s(S'161.3.93.3'
p2455
S'152.199.231.73'
p2456
I51520
I18355
tp2457
I0
s(S'226.4.1.121'
p2458
S'224.255.76.16'
p2459
I13932
I23450
tp2460
I0
s(S'231.35.51.4'
p2461
S'161.186.3.134'
p2462
I38387
I44716
tp2463
I0
s(S'23.96.159.181'
p2464
S'75.187.170.151'
p2465
I26822
I44242
tp2466
I0
s(S'25.114.203.200'
p2467
S'199.183.210.137'
p2468
I40469
I43037
tp2469
I0
s(S'45.146.58.149'
p2470
S'71.148.50.8'
p2471
I59463
I50122
tp2472
I1
s(S'221.219.33.216'
p2473
S'222.246.210.20'
p2474
I31652
I23952
tp2475
I1
s(S'157.81.95.8'
p2476
S'169.21.0.102'
p2477
I57664
I20580
tp2478
I1
s(S'125.228.30.13'
p2479
S'180.241.57.80'
p2480
I32737
I11097
tp2481
I0
s(S'89.196.25.186'
p2482
S'47.95.48.179'
p2483
I2592
I20849
tp2484
I1
s(S'66.148.251.22'
p2485
S'126.35.208.23'
p2486
I40356
I54820
tp2487
I0
s(S'45.14.202.142'
p2488
S'175.119.32.240'
p2489
I58864
I62644
tp2490
I2
s(S'11.43.217.195'
p2491
S'183.69.175.198'
p2492
I25739
I50768
tp2493
I0
s(S'174.194.200.231'
p2494
S'52.240.209.74'
p2495
I46616
I33130
tp2496
I0
s(S'196.195.196.156'
p2497
S'193.31.123.43'
p2498
I18761
I21879
tp2499
I0
s(S'30.249.41.149'
p2500
S'199.222.202.87'
p2501
I61476
I63132
tp2502
I0
s(S'54.233.61.125'
p2503
S'207.33.26.98'
p2504
I49723
I14377
tp2505
I1
s(S'139.158.136.16'
p2506
S'178.236.156.156'
p2507
I53098
I48757
tp2508
I0
s(S'82.97.60.83'
p2509
S'95.72.46.84'
p2510
I59897
I41759
tp2511
I0
s(S'139.63.133.122'
p2512
S'227.96.47.237'
p2513
I37398
I64682
tp2514
I1
s(S'133.234.107.58'
p2515
S'154.147.138.176'
p2516
I64484
I56999
tp2517
I0
s(S'86.65.12.210'
p2518
S'205.223.174.110'
p2519
I62198
I65530
tp2520
I1
s(S'187.57.166.122'
p2521
S'118.58.250.230'
p2522
I51399
I11581
tp2523
I0
s(S'104.214.19.1'
p2524
S'206.129.40.127'
p2525
I3350
I39117
tp2526
I1
s(S'196.116.7.207'
p2527
S'191.125.206.207'
p2528
I29032
I16607
tp2529
I2
s(S'204.125.165.54'
p2530
S'74.119.21.154'
p2531
I58670
I43732
tp2532
I0
s(S'142.213.81.158'
p2533
S'76.117.229.157'
p2534
I7086
I19906
tp2535
I1
s(S'226.28.251.144'
p2536
S'143.160.157.124'
p2537
I8031
I30352
tp2538
I0
s(S'227.152.3.167'
p2539
S'65.150.190.30'
p2540
I5950
I24796
tp2541
I0
s(S'182.187.215.95'
p2542
S'190.238.26.173'
p2543
I57067
I55422
tp2544
I1
s(S'56.33.21.67'
p2545
S'14.155.137.144'
p2546
I7254
I45147
tp2547
I481
s(S'233.168.115.143'
p2548
S'50.1.134.53'
p2549
I50536
I4239
tp2550
I0
s(S'123.30.52.130'
p2551
S'150.95.193.176'
p2552
I21037
I48901
tp2553
I0
s(S'54.232.235.161'
p2554
S'38.190.237.84'
p2555
I52719
I28373
tp2556
I1
s(S'64.168.241.193'
p2557
S'241.212.86.159'
p2558
I60696
I24249
tp2559
I0
s(S'13.45.183.72'
p2560
S'182.156.134.99'
p2561
I13341
I44834
tp2562
I1
s(S'240.72.46.53'
p2563
S'193.82.1.242'
p2564
I40463
I21747
tp2565
I0
s(S'20.170.14.87'
p2566
S'181.186.44.155'
p2567
I8241
I38096
tp2568
I1
s(S'91.216.159.243'
p2569
S'166.44.158.148'
p2570
I58542
I15052
tp2571
I1
s(S'250.217.212.153'
p2572
S'32.121.212.171'
p2573
I22300
I51464
tp2574
I0
s(S'75.139.179.60'
p2575
S'32.58.144.71'
p2576
I39032
I5722
tp2577
I0
s(S'183.186.52.44'
p2578
S'148.54.213.58'
p2579
I18137
I22992
tp2580
I461
s(S'82.211.34.7'
p2581
S'112.140.53.160'
p2582
I56207
I6075
tp2583
I0
s(S'149.121.131.8'
p2584
S'159.254.27.6'
p2585
I6302
I14260
tp2586
I0
s(S'246.199.142.107'
p2587
S'105.248.121.237'
p2588
I23154
I33354
tp2589
I1
s(S'19.163.230.14'
p2590
S'51.12.151.251'
p2591
I12295
I4139
tp2592
I0
s(S'222.119.147.0'
p2593
S'222.227.144.104'
p2594
I12181
I53143
tp2595
I0
s(S'23.240.108.253'
p2596
S'94.236.74.92'
p2597
I54590
I60385
tp2598
I1
s(S'158.242.87.10'
p2599
S'169.206.27.16'
p2600
I4482
I26607
tp2601
I1
s(S'230.221.29.160'
p2602
S'242.208.105.151'
p2603
I31108
I89
tp2604
I0
s(S'219.83.7.108'
p2605
S'59.33.64.250'
p2606
I29725
I10343
tp2607
I2
s(S'106.244.218.191'
p2608
S'207.41.229.184'
p2609
I7164
I26340
tp2610
I1
s(S'175.240.98.231'
p2611
S'69.116.60.56'
p2612
I39500
I26800
tp2613
I1
s(S'163.81.181.113'
p2614
S'241.201.48.42'
p2615
I20383
I16998
tp2616
I2
s(S'109.104.78.184'
p2617
S'55.107.220.111'
p2618
I42725
I37362
tp2619
I0
s(S'115.192.222.141'
p2620
S'72.193.81.23'
p2621
I12010
I32603
tp2622
I0
s(S'174.83.121.120'
p2623
S'152.81.75.110'
p2624
I18489
I64393
tp2625
I1
s(S'175.93.202.127'
p2626
S'172.69.255.14'
p2627
I36603
I49029
tp2628
I0
s(S'24.249.164.177'
p2629
S'128.210.246.216'
p2630
I6405
I51215
tp2631
I0
s(S'214.46.71.73'
p2632
S'154.186.90.50'
p2633
I60286
I46537
tp2634
I0
s(S'195.143.211.107'
p2635
S'170.7.162.89'
p2636
I32824
I8323
tp2637
I0
s(S'92.236.128.182'
p2638
S'55.18.122.143'
p2639
I48141
I22093
tp2640
I0
s(S'248.105.11.207'
p2641
S'77.3.177.179'
p2642
I1550
I43816
tp2643
I1
s(S'118.120.26.42'
p2644
S'112.0.189.100'
p2645
I65467
I49945
tp2646
I0
s(S'38.73.99.60'
p2647
S'45.86.58.171'
p2648
I29264
I44396
tp2649
I1
s(S'21.254.230.55'
p2650
S'213.151.116.124'
p2651
I60214
I36030
tp2652
I1
s(S'103.205.112.130'
p2653
S'61.239.252.20'
p2654
I48307
I61231
tp2655
I0
s(S'89.36.230.248'
p2656
S'99.7.47.94'
p2657
I29816
I51578
tp2658
I0
s(S'106.24.69.115'
p2659
S'56.115.54.186'
p2660
I15890
I36519
tp2661
I0
s(S'29.154.132.209'
p2662
S'156.148.105.103'
p2663
I7653
I20350
tp2664
I1
s(S'167.202.47.38'
p2665
S'184.26.110.213'
p2666
I7048
I32772
tp2667
I0
s(S'131.213.209.176'
p2668
S'160.60.247.33'
p2669
I61323
I12442
tp2670
I1
s(S'55.248.247.185'
p2671
S'127.47.25.45'
p2672
I17764
I43782
tp2673
I0
s(S'88.255.112.197'
p2674
S'130.195.34.5'
p2675
I5303
I31144
tp2676
I0
s(S'86.104.209.67'
p2677
S'60.70.199.209'
p2678
I19260
I57280
tp2679
I1
s(S'154.68.17.75'
p2680
S'232.23.30.163'
p2681
I53943
I44426
tp2682
I0
s(S'174.36.6.92'
p2683
S'54.124.63.114'
p2684
I34892
I39925
tp2685
I0
s(S'84.61.114.243'
p2686
S'226.22.77.206'
p2687
I29135
I31332
tp2688
I2
s(S'238.189.95.171'
p2689
S'253.28.247.136'
p2690
I16316
I23902
tp2691
I1
s(S'203.203.204.235'
p2692
S'141.186.99.237'
p2693
I10822
I43580
tp2694
I1
s(S'226.225.231.236'
p2695
S'73.72.28.117'
p2696
I37443
I35067
tp2697
I0
s(S'165.207.13.242'
p2698
S'11.95.183.13'
p2699
I22923
I30971
tp2700
I1
s(S'131.177.210.25'
p2701
S'176.109.182.29'
p2702
I50897
I59942
tp2703
I0
s(S'246.160.20.42'
p2704
S'183.108.173.118'
p2705
I52275
I54940
tp2706
I0
s(S'58.203.67.224'
p2707
S'93.34.175.192'
p2708
I49902
I17963
tp2709
I1
s(S'53.212.158.177'
p2710
S'181.36.114.5'
p2711
I3363
I11390
tp2712
I0
s(S'64.200.169.166'
p2713
S'150.72.82.163'
p2714
I241
I26419
tp2715
I1
s(S'39.242.22.58'
p2716
S'150.175.17.171'
p2717
I63369
I43045
tp2718
I0
s(S'237.89.65.84'
p2719
S'242.152.4.151'
p2720
I34339
I41576
tp2721
I0
s(S'251.196.62.95'
p2722
S'235.210.23.126'
p2723
I7623
I31181
tp2724
I2
s(S'75.246.54.217'
p2725
S'118.14.216.173'
p2726
I37224
I4820
tp2727
I1
s(S'23.64.109.3'
p2728
S'69.22.24.241'
p2729
I64933
I6878
tp2730
I1
s(S'22.199.74.125'
p2731
S'232.237.234.59'
p2732
I53774
I27152
tp2733
I0
s(S'32.2.192.8'
p2734
S'208.55.109.116'
p2735
I36453
I30466
tp2736
I0
s(S'220.189.49.154'
p2737
S'66.88.53.119'
p2738
I45527
I2134
tp2739
I0
s(S'46.158.137.115'
p2740
S'155.157.116.176'
p2741
I31946
I12240
tp2742
I0
s(S'65.213.241.178'
p2743
S'181.186.164.31'
p2744
I16380
I2509
tp2745
I0
s(S'113.236.177.93'
p2746
S'152.229.13.24'
p2747
I39566
I51953
tp2748
I0
s(S'222.241.89.47'
p2749
S'184.182.112.237'
p2750
I58191
I39055
tp2751
I0
s(S'95.128.194.58'
p2752
S'34.125.236.56'
p2753
I57993
I31551
tp2754
I1
s(S'252.35.163.101'
p2755
S'82.185.101.118'
p2756
I12699
I63029
tp2757
I0
s(S'236.50.21.111'
p2758
S'201.143.29.36'
p2759
I31095
I22150
tp2760
I0
s(S'27.163.116.142'
p2761
S'139.115.94.142'
p2762
I63196
I64130
tp2763
I1
s(S'97.70.120.54'
p2764
S'64.234.69.97'
p2765
I10958
I43419
tp2766
I1
s(S'12.198.50.47'
p2767
S'210.252.150.189'
p2768
I54096
I52261
tp2769
I0
s(S'190.227.8.230'
p2770
S'217.222.131.173'
p2771
I36611
I55417
tp2772
I0
s(S'235.187.22.94'
p2773
S'110.231.242.148'
p2774
I62863
I24740
tp2775
I0
s(S'239.223.9.207'
p2776
S'201.130.17.61'
p2777
I37044
I20242
tp2778
I0
s(S'137.168.153.211'
p2779
S'102.159.181.220'
p2780
I45152
I20100
tp2781
I0
s(S'191.77.247.0'
p2782
S'65.21.235.209'
p2783
I31211
I43595
tp2784
I2
s(S'79.66.85.162'
p2785
S'198.36.244.33'
p2786
I33046
I56887
tp2787
I2
s(S'57.115.181.100'
p2788
S'57.213.96.205'
p2789
I26992
I35620
tp2790
I1
s(S'219.2.9.59'
p2791
S'78.245.108.186'
p2792
I54690
I11653
tp2793
I0
s(S'42.95.201.234'
p2794
S'214.102.91.182'
p2795
I25295
I57754
tp2796
I0
s(S'37.171.78.187'
p2797
S'88.159.66.113'
p2798
I15876
I35256
tp2799
I1
s(S'140.174.216.153'
p2800
S'252.249.246.25'
p2801
I62846
I34832
tp2802
I0
s(S'55.237.65.162'
p2803
S'65.209.61.124'
p2804
I22775
I21802
tp2805
I2
s(S'112.28.2.150'
p2806
S'12.43.189.170'
p2807
I39505
I48964
tp2808
I0
s(S'25.133.22.251'
p2809
S'125.246.247.169'
p2810
I10324
I49396
tp2811
I1
s(S'223.145.218.34'
p2812
S'37.229.231.153'
p2813
I55151
I21719
tp2814
I0
s(S'247.77.50.122'
p2815
S'119.199.161.57'
p2816
I45066
I1530
tp2817
I2
s(S'192.14.1.119'
p2818
S'142.27.232.5'
p2819
I29372
I38427
tp2820
I1
s(S'186.236.250.93'
p2821
S'23.209.175.150'
p2822
I1870
I64526
tp2823
I0
s(S'53.17.137.31'
p2824
S'30.158.221.21'
p2825
I3659
I23701
tp2826
I0
s(S'112.190.151.233'
p2827
S'58.37.79.44'
p2828
I28671
I58492
tp2829
I1
s(S'196.227.86.255'
p2830
S'21.74.79.250'
p2831
I7420
I49638
tp2832
I0
s(S'151.175.230.20'
p2833
S'163.82.131.92'
p2834
I11066
I58397
tp2835
I1
s(S'17.78.237.140'
p2836
S'94.203.163.34'
p2837
I38320
I47487
tp2838
I1
s(S'197.252.47.21'
p2839
S'103.238.142.119'
p2840
I41341
I24997
tp2841
I2
s(S'98.117.238.114'
p2842
S'18.169.234.110'
p2843
I36616
I18489
tp2844
I0
s(S'17.75.51.116'
p2845
S'153.207.78.109'
p2846
I21251
I53385
tp2847
I1
s(S'143.133.195.92'
p2848
S'101.81.19.121'
p2849
I4589
I35388
tp2850
I0
s(S'152.54.11.27'
p2851
S'227.222.175.210'
p2852
I3020
I38965
tp2853
I0
s(S'143.0.162.149'
p2854
S'199.21.195.252'
p2855
I26003
I47999
tp2856
I0
s(S'158.42.226.52'
p2857
S'59.162.19.133'
p2858
I9253
I53170
tp2859
I1
s(S'183.254.193.188'
p2860
S'250.176.154.128'
p2861
I39817
I47294
tp2862
I494
s(S'171.116.88.95'
p2863
S'24.194.225.16'
p2864
I24301
I12853
tp2865
I0
s(S'148.122.187.169'
p2866
S'22.23.73.76'
p2867
I59712
I11087
tp2868
I0
s(S'193.67.252.241'
p2869
S'17.112.53.54'
p2870
I24180
I40787
tp2871
I0
s(S'127.250.21.93'
p2872
S'220.148.37.235'
p2873
I26637
I61
tp2874
I0
s(S'202.5.66.231'
p2875
S'194.81.145.251'
p2876
I25877
I54945
tp2877
I1
s(S'187.158.206.32'
p2878
S'154.176.16.156'
p2879
I41799
I62771
tp2880
I0
s(S'18.184.213.238'
p2881
S'245.148.173.183'
p2882
I12579
I33003
tp2883
I0
s(S'21.182.71.181'
p2884
S'38.59.190.192'
p2885
I32074
I24778
tp2886
I1
s(S'163.232.4.199'
p2887
S'166.128.2.230'
p2888
I48745
I59730
tp2889
I0
s(S'99.237.255.26'
p2890
S'108.225.228.91'
p2891
I59374
I50204
tp2892
I1
s(S'73.95.115.158'
p2893
S'134.142.235.49'
p2894
I58217
I62091
tp2895
I1
s(S'214.63.217.26'
p2896
S'160.232.25.144'
p2897
I57403
I37766
tp2898
I0
s(S'16.108.80.9'
p2899
S'243.239.187.112'
p2900
I52268
I44407
tp2901
I0
s(S'216.20.185.135'
p2902
S'200.116.125.184'
p2903
I12538
I44213
tp2904
I1
s(S'38.63.254.0'
p2905
S'83.181.40.224'
p2906
I38167
I9987
tp2907
I1
s(S'106.240.236.188'
p2908
S'136.45.197.85'
p2909
I58659
I53426
tp2910
I1
s(S'127.16.144.205'
p2911
S'113.41.57.2'
p2912
I32685
I32313
tp2913
I0
s(S'252.204.18.44'
p2914
S'166.115.22.163'
p2915
I57500
I41641
tp2916
I0
s(S'184.47.249.168'
p2917
S'193.2.142.155'
p2918
I17847
I51112
tp2919
I0
s(S'178.93.203.202'
p2920
S'225.54.2.164'
p2921
I7022
I7716
tp2922
I0
s(S'168.126.159.25'
p2923
S'169.53.97.243'
p2924
I57459
I35551
tp2925
I1
s(S'64.151.64.197'
p2926
S'103.167.62.32'
p2927
I1318
I27142
tp2928
I0
s(S'10.193.23.221'
p2929
S'174.126.212.8'
p2930
I20373
I39894
tp2931
I0
s(S'131.33.201.233'
p2932
S'170.202.113.203'
p2933
I48600
I11370
tp2934
I0
s(S'252.238.120.134'
p2935
S'12.176.162.226'
p2936
I27207
I13448
tp2937
I0
s(S'121.154.169.125'
p2938
S'16.222.85.136'
p2939
I23443
I56761
tp2940
I1
s(S'120.197.6.247'
p2941
S'153.90.231.189'
p2942
I53618
I15800
tp2943
I2
s(S'172.39.140.237'
p2944
S'225.136.222.7'
p2945
I11586
I58162
tp2946
I1
s(S'18.92.242.67'
p2947
S'126.58.154.190'
p2948
I26170
I57597
tp2949
I1
s(S'155.37.195.193'
p2950
S'62.72.119.84'
p2951
I41514
I39454
tp2952
I0
s(S'48.73.252.133'
p2953
S'166.118.94.31'
p2954
I44148
I34085
tp2955
I0
s(S'122.103.42.195'
p2956
S'95.96.176.175'
p2957
I46551
I62177
tp2958
I0
s(S'235.78.163.212'
p2959
S'40.11.55.62'
p2960
I29095
I46227
tp2961
I0
s(S'167.122.6.125'
p2962
S'40.144.191.92'
p2963
I47812
I32061
tp2964
I1
s(S'152.63.226.14'
p2965
S'73.203.252.232'
p2966
I14751
I19822
tp2967
I1
s(S'24.190.198.62'
p2968
S'10.194.198.149'
p2969
I10059
I31283
tp2970
I1
s(S'66.3.164.184'
p2971
S'198.164.71.234'
p2972
I11231
I57949
tp2973
I0
s(S'207.11.193.8'
p2974
S'93.234.55.197'
p2975
I29544
I62841
tp2976
I0
s(S'186.91.151.154'
p2977
S'189.50.245.46'
p2978
I58656
I8094
tp2979
I0
s(S'134.18.173.232'
p2980
S'169.249.118.131'
p2981
I3513
I34095
tp2982
I2
s(S'63.224.164.233'
p2983
S'79.179.120.174'
p2984
I46567
I39958
tp2985
I1
s(S'81.78.68.180'
p2986
S'141.193.25.4'
p2987
I28998
I33619
tp2988
I0
s(S'126.251.188.158'
p2989
S'164.46.202.75'
p2990
I36943
I19152
tp2991
I1
s(S'56.195.223.12'
p2992
S'206.212.245.81'
p2993
I13595
I63778
tp2994
I0
s(S'98.39.69.106'
p2995
S'64.23.2.136'
p2996
I7165
I33021
tp2997
I1
s(S'169.83.107.148'
p2998
S'135.67.213.73'
p2999
I46922
I57990
tp3000
I1
s.